
========================================================================

** ELF Header Information

    File Name: .\Objects\01bsp_radio.axf

    Machine class: ELFCLASS32 (32-bit)
    Data encoding: ELFDATA2LSB (Little endian)
    Header version: EV_CURRENT (Current version)
    Operating System ABI: none
    ABI Version: 0
    File Type: ET_EXEC (Executable) (2)
    Machine: EM_ARM (ARM)

    Image Entry point: Not specified
    Flags: EF_ARM_ABI_FLOAT_SOFT (0x05000200)

    ARM ELF revision: 5 (ABI version 2)

    Conforms to Soft float procedure-call standard

    Built with
    Component: ARM Compiler 5.06 update 7 (build 960) Tool: armasm [4d35fa]
    Component: ARM Compiler 5.06 update 7 (build 960) Tool: armlink [4d3601]

    Header size: 52 bytes (0x34)
    Program header entry size: 32 bytes (0x20)
    Section header entry size: 40 bytes (0x28)

    Program header entries: 1
    Section header entries: 16

    Program header offset: 115040 (0x0001c160)
    Section header offset: 115072 (0x0001c180)

    Section header string table index: 15

========================================================================

** Program header #0

    Type          : PT_LOAD (1)
    File Offset   : 52 (0x34)
    Virtual Addr  : 0x00000000
    Physical Addr : 0x00000000
    Size in file  : 9652 bytes (0x25b4)
    Size in memory: 13952 bytes (0x3680)
    Flags         : PF_X + PF_W + PF_R (0x7)
    Alignment     : 16


========================================================================

** Section #1

    Name        : ER_IROM1
    Type        : SHT_PROGBITS (0x00000001)
    Flags       : SHF_ALLOC + SHF_EXECINSTR (0x00000006)
    Addr        : 0x00000000
    File Offset : 52 (0x34)
    Size        : 9504 bytes (0x2520)
    Link        : SHN_UNDEF
    Info        : 0
    Alignment   : 4
    Entry Size  : 0

    $d.realdata
    RESET
    __Vectors
        0x00000000:    20001160    `..     DCD    536875360
        0x00000004:    00000175    u...    DCD    373
        0x00000008:    00000000    ....    DCD    0
        0x0000000c:    00000000    ....    DCD    0
        0x00000010:    00000000    ....    DCD    0
        0x00000014:    00000000    ....    DCD    0
        0x00000018:    00000000    ....    DCD    0
        0x0000001c:    00000000    ....    DCD    0
        0x00000020:    00000000    ....    DCD    0
        0x00000024:    00000000    ....    DCD    0
        0x00000028:    00000000    ....    DCD    0
        0x0000002c:    00000000    ....    DCD    0
        0x00000030:    00000000    ....    DCD    0
        0x00000034:    00000000    ....    DCD    0
        0x00000038:    00000000    ....    DCD    0
        0x0000003c:    00000000    ....    DCD    0
        0x00000040:    0000017f    ....    DCD    383
        0x00000044:    000001cf    ....    DCD    463
        0x00000048:    00000247    G...    DCD    583
        0x0000004c:    00000193    ....    DCD    403
        0x00000050:    00000000    ....    DCD    0
        0x00000054:    00000000    ....    DCD    0
        0x00000058:    000001a7    ....    DCD    423
        0x0000005c:    000001bb    ....    DCD    443
        0x00000060:    0000021f    ....    DCD    543
        0x00000064:    00000233    3...    DCD    563
        0x00000068:    00000000    ....    DCD    0
        0x0000006c:    0000025b    [...    DCD    603
        0x00000070:    000001e3    ....    DCD    483
        0x00000074:    000001f7    ....    DCD    503
        0x00000078:    0000020b    ....    DCD    523
        0x0000007c:    00000000    ....    DCD    0
    $t
    !!!main
    __main
        0x00000080:    f000f802    ....    BL       __scatterload ; 0x88
        0x00000084:    f000f84b    ..K.    BL       __rt_entry ; 0x11e
    !!!scatter
    __scatterload
    __scatterload_rt2
    __scatterload_rt2_thumb_only
        0x00000088:    a00c        ..      ADR      r0,{pc}+0x34 ; 0xbc
        0x0000008a:    c830        0.      LDM      r0!,{r4,r5}
        0x0000008c:    3808        .8      SUBS     r0,r0,#8
        0x0000008e:    1824        $.      ADDS     r4,r4,r0
        0x00000090:    182d        -.      ADDS     r5,r5,r0
        0x00000092:    46a2        .F      MOV      r10,r4
        0x00000094:    1e67        g.      SUBS     r7,r4,#1
        0x00000096:    46ab        .F      MOV      r11,r5
    __scatterload_null
        0x00000098:    4654        TF      MOV      r4,r10
        0x0000009a:    465d        ]F      MOV      r5,r11
        0x0000009c:    42ac        .B      CMP      r4,r5
        0x0000009e:    d101        ..      BNE      0xa4 ; __scatterload_null + 12
        0x000000a0:    f000f83d    ..=.    BL       __rt_entry ; 0x11e
        0x000000a4:    467e        ~F      MOV      r6,pc
        0x000000a6:    3e0f        .>      SUBS     r6,r6,#0xf
        0x000000a8:    cc0f        ..      LDM      r4!,{r0-r3}
        0x000000aa:    46b6        .F      MOV      lr,r6
        0x000000ac:    2601        .&      MOVS     r6,#1
        0x000000ae:    4233        3B      TST      r3,r6
        0x000000b0:    d000        ..      BEQ      0xb4 ; __scatterload_null + 28
        0x000000b2:    1afb        ..      SUBS     r3,r7,r3
        0x000000b4:    46a2        .F      MOV      r10,r4
        0x000000b6:    46ab        .F      MOV      r11,r5
        0x000000b8:    4333        3C      ORRS     r3,r3,r6
        0x000000ba:    4718        .G      BX       r3
    $d
        0x000000bc:    00002444    D$..    DCD    9284
        0x000000c0:    00002464    d$..    DCD    9316
    $t
    !!handler_copy
    __scatterload_copy
        0x000000c4:    3a10        .:      SUBS     r2,r2,#0x10
        0x000000c6:    d302        ..      BCC      0xce ; __scatterload_copy + 10
        0x000000c8:    c878        x.      LDM      r0!,{r3-r6}
        0x000000ca:    c178        x.      STM      r1!,{r3-r6}
        0x000000cc:    d8fa        ..      BHI      __scatterload_copy ; 0xc4
        0x000000ce:    0752        R.      LSLS     r2,r2,#29
        0x000000d0:    d301        ..      BCC      0xd6 ; __scatterload_copy + 18
        0x000000d2:    c830        0.      LDM      r0!,{r4,r5}
        0x000000d4:    c130        0.      STM      r1!,{r4,r5}
        0x000000d6:    d501        ..      BPL      0xdc ; __scatterload_copy + 24
        0x000000d8:    6804        .h      LDR      r4,[r0,#0]
        0x000000da:    600c        .`      STR      r4,[r1,#0]
        0x000000dc:    4770        pG      BX       lr
        0x000000de:    0000        ..      MOVS     r0,r0
    !!handler_zi
    __scatterload_zeroinit
        0x000000e0:    2300        .#      MOVS     r3,#0
        0x000000e2:    2400        .$      MOVS     r4,#0
        0x000000e4:    2500        .%      MOVS     r5,#0
        0x000000e6:    2600        .&      MOVS     r6,#0
        0x000000e8:    3a10        .:      SUBS     r2,r2,#0x10
        0x000000ea:    d301        ..      BCC      0xf0 ; __scatterload_zeroinit + 16
        0x000000ec:    c178        x.      STM      r1!,{r3-r6}
        0x000000ee:    d8fb        ..      BHI      0xe8 ; __scatterload_zeroinit + 8
        0x000000f0:    0752        R.      LSLS     r2,r2,#29
        0x000000f2:    d300        ..      BCC      0xf6 ; __scatterload_zeroinit + 22
        0x000000f4:    c130        0.      STM      r1!,{r4,r5}
        0x000000f6:    d500        ..      BPL      0xfa ; __scatterload_zeroinit + 26
        0x000000f8:    600b        .`      STR      r3,[r1,#0]
        0x000000fa:    4770        pG      BX       lr
    .ARM.Collect$$_printf_percent$$00000000
    _printf_percent
        0x000000fc:    b510        ..      PUSH     {r4,lr}
    .ARM.Collect$$_printf_percent$$00000009
    _printf_d
        0x000000fe:    2964        d)      CMP      r1,#0x64
        0x00000100:    d102        ..      BNE      _printf_x ; 0x108
        0x00000102:    f000f90f    ....    BL       _printf_int_dec ; 0x324
        0x00000106:    bd10        ..      POP      {r4,pc}
    .ARM.Collect$$_printf_percent$$0000000C
    _printf_x
        0x00000108:    2978        x)      CMP      r1,#0x78
        0x0000010a:    d102        ..      BNE      _printf_percent_end ; 0x112
        0x0000010c:    f000f940    ..@.    BL       _printf_int_hex ; 0x390
        0x00000110:    bd10        ..      POP      {r4,pc}
    .ARM.Collect$$_printf_percent$$00000017
    _printf_percent_end
        0x00000112:    2000        .       MOVS     r0,#0
        0x00000114:    bd10        ..      POP      {r4,pc}
    .ARM.Collect$$libinit$$00000000
    __rt_lib_init
        0x00000116:    b51f        ..      PUSH     {r0-r4,lr}
    .ARM.Collect$$libinit$$00000002
    .ARM.Collect$$libinit$$00000004
    .ARM.Collect$$libinit$$0000000A
    .ARM.Collect$$libinit$$0000000C
    .ARM.Collect$$libinit$$0000000E
    .ARM.Collect$$libinit$$00000011
    .ARM.Collect$$libinit$$00000013
    .ARM.Collect$$libinit$$00000015
    .ARM.Collect$$libinit$$00000017
    .ARM.Collect$$libinit$$00000019
    .ARM.Collect$$libinit$$0000001B
    .ARM.Collect$$libinit$$0000001D
    .ARM.Collect$$libinit$$0000001F
    .ARM.Collect$$libinit$$00000021
    .ARM.Collect$$libinit$$00000023
    .ARM.Collect$$libinit$$00000025
    .ARM.Collect$$libinit$$0000002C
    .ARM.Collect$$libinit$$0000002E
    .ARM.Collect$$libinit$$00000030
    .ARM.Collect$$libinit$$00000032
    .ARM.Collect$$libinit$$00000033
    __rt_lib_init_alloca_1
    __rt_lib_init_argv_1
    __rt_lib_init_atexit_1
    __rt_lib_init_clock_1
    __rt_lib_init_cpp_1
    __rt_lib_init_exceptions_1
    __rt_lib_init_fp_1
    __rt_lib_init_fp_trap_1
    __rt_lib_init_getenv_1
    __rt_lib_init_heap_1
    __rt_lib_init_lc_collate_1
    __rt_lib_init_lc_ctype_1
    __rt_lib_init_lc_monetary_1
    __rt_lib_init_lc_numeric_1
    __rt_lib_init_lc_time_1
    __rt_lib_init_preinit_1
    __rt_lib_init_rand_1
    __rt_lib_init_return
    __rt_lib_init_signal_1
    __rt_lib_init_stdio_1
    __rt_lib_init_user_alloc_1
        0x00000118:    bd1f        ..      POP      {r0-r4,pc}
    .ARM.Collect$$libshutdown$$00000000
    __rt_lib_shutdown
        0x0000011a:    b510        ..      PUSH     {r4,lr}
    .ARM.Collect$$libshutdown$$00000002
    .ARM.Collect$$libshutdown$$00000004
    .ARM.Collect$$libshutdown$$00000006
    .ARM.Collect$$libshutdown$$00000009
    .ARM.Collect$$libshutdown$$0000000C
    .ARM.Collect$$libshutdown$$0000000E
    .ARM.Collect$$libshutdown$$00000011
    .ARM.Collect$$libshutdown$$00000012
    __rt_lib_shutdown_cpp_1
    __rt_lib_shutdown_fini_1
    __rt_lib_shutdown_fp_trap_1
    __rt_lib_shutdown_heap_1
    __rt_lib_shutdown_return
    __rt_lib_shutdown_signal_1
    __rt_lib_shutdown_stdio_1
    __rt_lib_shutdown_user_alloc_1
        0x0000011c:    bd10        ..      POP      {r4,pc}
    .ARM.Collect$$rtentry$$00000000
    .ARM.Collect$$rtentry$$00000002
    .ARM.Collect$$rtentry$$00000004
    __rt_entry
    __rt_entry_presh_1
    __rt_entry_sh
        0x0000011e:    f000fb0d    ....    BL       __user_setup_stackheap ; 0x73c
        0x00000122:    4611        .F      MOV      r1,r2
    .ARM.Collect$$rtentry$$00000009
    .ARM.Collect$$rtentry$$0000000A
    __rt_entry_li
    __rt_entry_postsh_1
        0x00000124:    f7fffff7    ....    BL       __rt_lib_init ; 0x116
    .ARM.Collect$$rtentry$$0000000C
    .ARM.Collect$$rtentry$$0000000D
    __rt_entry_main
    __rt_entry_postli_1
        0x00000128:    f001f830    ..0.    BL       main ; 0x118c
        0x0000012c:    f000fb25    ..%.    BL       exit ; 0x77a
    .ARM.Collect$$rtexit$$00000000
    __rt_exit
        0x00000130:    b403        ..      PUSH     {r0,r1}
    .ARM.Collect$$rtexit$$00000002
    .ARM.Collect$$rtexit$$00000003
    __rt_exit_ls
    __rt_exit_prels_1
        0x00000132:    f7fffff2    ....    BL       __rt_lib_shutdown ; 0x11a
    .ARM.Collect$$rtexit$$00000004
    __rt_exit_exit
        0x00000136:    bc03        ..      POP      {r0,r1}
        0x00000138:    f000fc90    ....    BL       _sys_exit ; 0xa5c
    .emb_text
    __aeabi_memcpy4
    __aeabi_memcpy8
        0x0000013c:    b570        p.      PUSH     {r4-r6,lr}
        0x0000013e:    4605        .F      MOV      r5,r0
        0x00000140:    460c        .F      MOV      r4,r1
        0x00000142:    4616        .F      MOV      r6,r2
        0x00000144:    e002        ..      B        0x14c ; __aeabi_memcpy4 + 16
        0x00000146:    cc0f        ..      LDM      r4!,{r0-r3}
        0x00000148:    c50f        ..      STM      r5!,{r0-r3}
        0x0000014a:    3e10        .>      SUBS     r6,r6,#0x10
        0x0000014c:    2e10        ..      CMP      r6,#0x10
        0x0000014e:    d2fa        ..      BCS      0x146 ; __aeabi_memcpy4 + 10
        0x00000150:    2e08        ..      CMP      r6,#8
        0x00000152:    d302        ..      BCC      0x15a ; __aeabi_memcpy4 + 30
        0x00000154:    cc03        ..      LDM      r4!,{r0,r1}
        0x00000156:    c503        ..      STM      r5!,{r0,r1}
        0x00000158:    3e08        .>      SUBS     r6,r6,#8
        0x0000015a:    2e04        ..      CMP      r6,#4
        0x0000015c:    d307        ..      BCC      0x16e ; __aeabi_memcpy4 + 50
        0x0000015e:    cc01        ..      LDM      r4!,{r0}
        0x00000160:    c501        ..      STM      r5!,{r0}
        0x00000162:    1f36        6.      SUBS     r6,r6,#4
        0x00000164:    e003        ..      B        0x16e ; __aeabi_memcpy4 + 50
        0x00000166:    7821        !x      LDRB     r1,[r4,#0]
        0x00000168:    7029        )p      STRB     r1,[r5,#0]
        0x0000016a:    1c64        d.      ADDS     r4,r4,#1
        0x0000016c:    1c6d        m.      ADDS     r5,r5,#1
        0x0000016e:    1e76        v.      SUBS     r6,r6,#1
        0x00000170:    d2f9        ..      BCS      0x166 ; __aeabi_memcpy4 + 42
        0x00000172:    bd70        p.      POP      {r4-r6,pc}
    .text
    Reset_Handler
        0x00000174:    4941        AI      LDR      r1,[pc,#260] ; [0x27c] = 0xe000e100
        0x00000176:    4842        BH      LDR      r0,[pc,#264] ; [0x280] = 0
        0x00000178:    6008        .`      STR      r0,[r1,#0]
        0x0000017a:    4842        BH      LDR      r0,[pc,#264] ; [0x284] = 0x81
        0x0000017c:    4700        .G      BX       r0
    UART_Handler
        0x0000017e:    b501        ..      PUSH     {r0,lr}
        0x00000180:    2001        .       MOVS     r0,#1
        0x00000182:    f3808810    ....    MSR      PRIMASK,r0
        0x00000186:    f002f951    ..Q.    BL       uart_rx_isr ; 0x242c
        0x0000018a:    2000        .       MOVS     r0,#0
        0x0000018c:    f3808810    ....    MSR      PRIMASK,r0
        0x00000190:    bd01        ..      POP      {r0,pc}
    ADC_Handler
        0x00000192:    b501        ..      PUSH     {r0,lr}
        0x00000194:    2001        .       MOVS     r0,#1
        0x00000196:    f3808810    ....    MSR      PRIMASK,r0
        0x0000019a:    f000fc6b    ..k.    BL       adc_isr ; 0xa74
        0x0000019e:    2000        .       MOVS     r0,#0
        0x000001a0:    f3808810    ....    MSR      PRIMASK,r0
        0x000001a4:    bd01        ..      POP      {r0,pc}
    RF_Handler
        0x000001a6:    b501        ..      PUSH     {r0,lr}
        0x000001a8:    2001        .       MOVS     r0,#1
        0x000001aa:    f3808810    ....    MSR      PRIMASK,r0
        0x000001ae:    f001fbe7    ....    BL       radio_isr ; 0x1980
        0x000001b2:    2000        .       MOVS     r0,#0
        0x000001b4:    f3808810    ....    MSR      PRIMASK,r0
        0x000001b8:    bd01        ..      POP      {r0,pc}
    RFTIMER_Handler
        0x000001ba:    b501        ..      PUSH     {r0,lr}
        0x000001bc:    2001        .       MOVS     r0,#1
        0x000001be:    f3808810    ....    MSR      PRIMASK,r0
        0x000001c2:    f001fe41    ..A.    BL       sctimer_isr ; 0x1e48
        0x000001c6:    2000        .       MOVS     r0,#0
        0x000001c8:    f3808810    ....    MSR      PRIMASK,r0
        0x000001cc:    bd01        ..      POP      {r0,pc}
    EXT_GPIO3_ACTIVEHIGH_DEBOUNCED_Handler
        0x000001ce:    b501        ..      PUSH     {r0,lr}
        0x000001d0:    2001        .       MOVS     r0,#1
        0x000001d2:    f3808810    ....    MSR      PRIMASK,r0
        0x000001d6:    f000fe43    ..C.    BL       ext_gpio3_activehigh_debounced_isr ; 0xe60
        0x000001da:    2000        .       MOVS     r0,#0
        0x000001dc:    f3808810    ....    MSR      PRIMASK,r0
        0x000001e0:    bd01        ..      POP      {r0,pc}
    EXT_GPIO8_ACTIVEHIGH_Handler
        0x000001e2:    b501        ..      PUSH     {r0,lr}
        0x000001e4:    2001        .       MOVS     r0,#1
        0x000001e6:    f3808810    ....    MSR      PRIMASK,r0
        0x000001ea:    f000fe53    ..S.    BL       ext_gpio8_activehigh_isr ; 0xe94
        0x000001ee:    2000        .       MOVS     r0,#0
        0x000001f0:    f3808810    ....    MSR      PRIMASK,r0
        0x000001f4:    bd01        ..      POP      {r0,pc}
    EXT_GPIO9_ACTIVELOW_Handler
        0x000001f6:    b501        ..      PUSH     {r0,lr}
        0x000001f8:    2001        .       MOVS     r0,#1
        0x000001fa:    f3808810    ....    MSR      PRIMASK,r0
        0x000001fe:    f000fe4d    ..M.    BL       ext_gpio9_activelow_isr ; 0xe9c
        0x00000202:    2000        .       MOVS     r0,#0
        0x00000204:    f3808810    ....    MSR      PRIMASK,r0
        0x00000208:    bd01        ..      POP      {r0,pc}
    EXT_GPIO10_ACTIVELOW
        0x0000020a:    b501        ..      PUSH     {r0,lr}
        0x0000020c:    2001        .       MOVS     r0,#1
        0x0000020e:    f3808810    ....    MSR      PRIMASK,r0
        0x00000212:    f000fe0b    ....    BL       ext_gpio10_activelow_isr ; 0xe2c
        0x00000216:    2000        .       MOVS     r0,#0
        0x00000218:    f3808810    ....    MSR      PRIMASK,r0
        0x0000021c:    bd01        ..      POP      {r0,pc}
    RAWCHIPS_STARTVAL_Handler
        0x0000021e:    b501        ..      PUSH     {r0,lr}
        0x00000220:    2001        .       MOVS     r0,#1
        0x00000222:    f3808810    ....    MSR      PRIMASK,r0
        0x00000226:    f001fcf5    ....    BL       rawchips_startval_isr ; 0x1c14
        0x0000022a:    2000        .       MOVS     r0,#0
        0x0000022c:    f3808810    ....    MSR      PRIMASK,r0
        0x00000230:    bd01        ..      POP      {r0,pc}
    RAWCHIPS_32_Handler
        0x00000232:    b501        ..      PUSH     {r0,lr}
        0x00000234:    2001        .       MOVS     r0,#1
        0x00000236:    f3808810    ....    MSR      PRIMASK,r0
        0x0000023a:    f001fc89    ....    BL       rawchips_32_isr ; 0x1b50
        0x0000023e:    2000        .       MOVS     r0,#0
        0x00000240:    f3808810    ....    MSR      PRIMASK,r0
        0x00000244:    bd01        ..      POP      {r0,pc}
    EXT_OPTICAL_IRQ_IN_Handler
        0x00000246:    b501        ..      PUSH     {r0,lr}
        0x00000248:    2001        .       MOVS     r0,#1
        0x0000024a:    f3808810    ....    MSR      PRIMASK,r0
        0x0000024e:    f000ffdf    ....    BL       optical_32_isr ; 0x1210
        0x00000252:    2000        .       MOVS     r0,#0
        0x00000254:    f3808810    ....    MSR      PRIMASK,r0
        0x00000258:    bd01        ..      POP      {r0,pc}
    OPTICAL_SFD_Handler
        0x0000025a:    b501        ..      PUSH     {r0,lr}
        0x0000025c:    2001        .       MOVS     r0,#1
        0x0000025e:    f3808810    ....    MSR      PRIMASK,r0
        0x00000262:    f000fff7    ....    BL       optical_sfd_isr ; 0x1254
        0x00000266:    2000        .       MOVS     r0,#0
        0x00000268:    f3808810    ....    MSR      PRIMASK,r0
        0x0000026c:    bd01        ..      POP      {r0,pc}
    $d
        0x0000026e:    0000        ..      DCW    0
    $t
    __user_initial_stackheap
        0x00000270:    4805        .H      LDR      r0,[pc,#20] ; [0x288] = 0x20000560
        0x00000272:    4906        .I      LDR      r1,[pc,#24] ; [0x28c] = 0x20001160
        0x00000274:    4a06        .J      LDR      r2,[pc,#24] ; [0x290] = 0x20000960
        0x00000276:    4b07        .K      LDR      r3,[pc,#28] ; [0x294] = 0x20000960
        0x00000278:    4770        pG      BX       lr
    $d
        0x0000027a:    0000        ..      DCW    0
        0x0000027c:    e000e100    ....    DCD    3758153984
        0x00000280:    00000000    ....    DCD    0
        0x00000284:    00000081    ....    DCD    129
        0x00000288:    20000560    `..     DCD    536872288
        0x0000028c:    20001160    `..     DCD    536875360
        0x00000290:    20000960    `..     DCD    536873312
        0x00000294:    20000960    `..     DCD    536873312
    $t
    .text
    __use_no_semihosting
        0x00000298:    4770        pG      BX       lr
        0x0000029a:    0000        ..      MOVS     r0,r0
    .text
    __2printf
        0x0000029c:    b40f        ..      PUSH     {r0-r3}
        0x0000029e:    4905        .I      LDR      r1,[pc,#20] ; [0x2b4] = 0x2000008c
        0x000002a0:    b510        ..      PUSH     {r4,lr}
        0x000002a2:    aa03        ..      ADD      r2,sp,#0xc
        0x000002a4:    9802        ..      LDR      r0,[sp,#8]
        0x000002a6:    f000fa09    ....    BL       _printf_char_file ; 0x6bc
        0x000002aa:    bc10        ..      POP      {r4}
        0x000002ac:    bc08        ..      POP      {r3}
        0x000002ae:    b004        ..      ADD      sp,sp,#0x10
        0x000002b0:    4718        .G      BX       r3
    $d
        0x000002b2:    0000        ..      DCW    0
        0x000002b4:    2000008c    ...     DCD    536871052
    $t
    .text
    __printf
        0x000002b8:    b5f8        ..      PUSH     {r3-r7,lr}
        0x000002ba:    460e        .F      MOV      r6,r1
        0x000002bc:    4604        .F      MOV      r4,r0
        0x000002be:    2000        .       MOVS     r0,#0
        0x000002c0:    6220         b      STR      r0,[r4,#0x20]
        0x000002c2:    4620         F      MOV      r0,r4
        0x000002c4:    68e1        .h      LDR      r1,[r4,#0xc]
        0x000002c6:    4788        .G      BLX      r1
        0x000002c8:    2800        .(      CMP      r0,#0
        0x000002ca:    d029        ).      BEQ      0x320 ; __printf + 104
        0x000002cc:    2825        %(      CMP      r0,#0x25
        0x000002ce:    d002        ..      BEQ      0x2d6 ; __printf + 30
        0x000002d0:    6862        bh      LDR      r2,[r4,#4]
        0x000002d2:    68a1        .h      LDR      r1,[r4,#8]
        0x000002d4:    e020         .      B        0x318 ; __printf + 96
        0x000002d6:    68e1        .h      LDR      r1,[r4,#0xc]
        0x000002d8:    4620         F      MOV      r0,r4
        0x000002da:    2700        .'      MOVS     r7,#0
        0x000002dc:    4788        .G      BLX      r1
        0x000002de:    0005        ..      MOVS     r5,r0
        0x000002e0:    d01e        ..      BEQ      0x320 ; __printf + 104
        0x000002e2:    4628        (F      MOV      r0,r5
        0x000002e4:    3841        A8      SUBS     r0,r0,#0x41
        0x000002e6:    2819        .(      CMP      r0,#0x19
        0x000002e8:    d802        ..      BHI      0x2f0 ; __printf + 56
        0x000002ea:    2701        .'      MOVS     r7,#1
        0x000002ec:    02ff        ..      LSLS     r7,r7,#11
        0x000002ee:    3520         5      ADDS     r5,r5,#0x20
        0x000002f0:    4632        2F      MOV      r2,r6
        0x000002f2:    4620         F      MOV      r0,r4
        0x000002f4:    6027        '`      STR      r7,[r4,#0]
        0x000002f6:    4629        )F      MOV      r1,r5
        0x000002f8:    f7ffff00    ....    BL       _printf_percent ; 0xfc
        0x000002fc:    2800        .(      CMP      r0,#0
        0x000002fe:    d008        ..      BEQ      0x312 ; __printf + 90
        0x00000300:    2801        .(      CMP      r0,#1
        0x00000302:    d004        ..      BEQ      0x30e ; __printf + 86
        0x00000304:    1df6        ..      ADDS     r6,r6,#7
        0x00000306:    08f6        ..      LSRS     r6,r6,#3
        0x00000308:    00f6        ..      LSLS     r6,r6,#3
        0x0000030a:    3608        .6      ADDS     r6,r6,#8
        0x0000030c:    e7d9        ..      B        0x2c2 ; __printf + 10
        0x0000030e:    1d36        6.      ADDS     r6,r6,#4
        0x00000310:    e7d7        ..      B        0x2c2 ; __printf + 10
        0x00000312:    6862        bh      LDR      r2,[r4,#4]
        0x00000314:    4628        (F      MOV      r0,r5
        0x00000316:    68a1        .h      LDR      r1,[r4,#8]
        0x00000318:    4790        .G      BLX      r2
        0x0000031a:    6a20         j      LDR      r0,[r4,#0x20]
        0x0000031c:    1c40        @.      ADDS     r0,r0,#1
        0x0000031e:    e7cf        ..      B        0x2c0 ; __printf + 8
        0x00000320:    6a20         j      LDR      r0,[r4,#0x20]
        0x00000322:    bdf8        ..      POP      {r3-r7,pc}
    .text
    _printf_int_dec
        0x00000324:    b5f7        ..      PUSH     {r0-r2,r4-r7,lr}
        0x00000326:    2500        .%      MOVS     r5,#0
        0x00000328:    2975        u)      CMP      r1,#0x75
        0x0000032a:    6810        .h      LDR      r0,[r2,#0]
        0x0000032c:    9900        ..      LDR      r1,[sp,#0]
        0x0000032e:    a614        ..      ADR      r6,{pc}+0x52 ; 0x380
        0x00000330:    d011        ..      BEQ      0x356 ; _printf_int_dec + 50
        0x00000332:    46c0        .F      MOV      r8,r8
        0x00000334:    46c0        .F      MOV      r8,r8
        0x00000336:    2800        .(      CMP      r0,#0
        0x00000338:    da02        ..      BGE      0x340 ; _printf_int_dec + 28
        0x0000033a:    4240        @B      RSBS     r0,r0,#0
        0x0000033c:    a611        ..      ADR      r6,{pc}+0x48 ; 0x384
        0x0000033e:    e008        ..      B        0x352 ; _printf_int_dec + 46
        0x00000340:    9900        ..      LDR      r1,[sp,#0]
        0x00000342:    6809        .h      LDR      r1,[r1,#0]
        0x00000344:    078a        ..      LSLS     r2,r1,#30
        0x00000346:    d501        ..      BPL      0x34c ; _printf_int_dec + 40
        0x00000348:    a60f        ..      ADR      r6,{pc}+0x40 ; 0x388
        0x0000034a:    e002        ..      B        0x352 ; _printf_int_dec + 46
        0x0000034c:    0749        I.      LSLS     r1,r1,#29
        0x0000034e:    d504        ..      BPL      0x35a ; _printf_int_dec + 54
        0x00000350:    a60e        ..      ADR      r6,{pc}+0x3c ; 0x38c
        0x00000352:    2501        .%      MOVS     r5,#1
        0x00000354:    e001        ..      B        0x35a ; _printf_int_dec + 54
        0x00000356:    46c0        .F      MOV      r8,r8
        0x00000358:    46c0        .F      MOV      r8,r8
        0x0000035a:    9f00        ..      LDR      r7,[sp,#0]
        0x0000035c:    2400        .$      MOVS     r4,#0
        0x0000035e:    3724        $7      ADDS     r7,r7,#0x24
        0x00000360:    e004        ..      B        0x36c ; _printf_int_dec + 72
        0x00000362:    f000f9bf    ....    BL       __rt_udiv10 ; 0x6e4
        0x00000366:    3130        01      ADDS     r1,r1,#0x30
        0x00000368:    5539        9U      STRB     r1,[r7,r4]
        0x0000036a:    1c64        d.      ADDS     r4,r4,#1
        0x0000036c:    2800        .(      CMP      r0,#0
        0x0000036e:    d1f8        ..      BNE      0x362 ; _printf_int_dec + 62
        0x00000370:    462b        +F      MOV      r3,r5
        0x00000372:    4632        2F      MOV      r2,r6
        0x00000374:    4621        !F      MOV      r1,r4
        0x00000376:    9800        ..      LDR      r0,[sp,#0]
        0x00000378:    f000f948    ..H.    BL       _printf_int_common ; 0x60c
        0x0000037c:    bdfe        ..      POP      {r1-r7,pc}
    $d
        0x0000037e:    0000        ..      DCW    0
        0x00000380:    00000000    ....    DCD    0
        0x00000384:    0000002d    -...    DCD    45
        0x00000388:    0000002b    +...    DCD    43
        0x0000038c:    00000020     ...    DCD    32
    $t
    .text
    _printf_int_hex
    _printf_longlong_hex
        0x00000390:    b570        p.      PUSH     {r4-r6,lr}
        0x00000392:    4604        .F      MOV      r4,r0
        0x00000394:    460d        .F      MOV      r5,r1
        0x00000396:    4621        !F      MOV      r1,r4
        0x00000398:    6810        .h      LDR      r0,[r2,#0]
        0x0000039a:    46c0        .F      MOV      r8,r8
        0x0000039c:    46c0        .F      MOV      r8,r8
        0x0000039e:    8821        !.      LDRH     r1,[r4,#0]
        0x000003a0:    0509        ..      LSLS     r1,r1,#20
        0x000003a2:    d502        ..      BPL      0x3aa ; _printf_int_hex + 26
        0x000003a4:    4a0f        .J      LDR      r2,[pc,#60] ; [0x3e4] = 0x212e
        0x000003a6:    447a        zD      ADD      r2,r2,pc
        0x000003a8:    e002        ..      B        0x3b0 ; _printf_int_hex + 32
        0x000003aa:    4a0e        .J      LDR      r2,[pc,#56] ; [0x3e4] = 0x212e
        0x000003ac:    447a        zD      ADD      r2,r2,pc
        0x000003ae:    320e        .2      ADDS     r2,r2,#0xe
        0x000003b0:    4623        #F      MOV      r3,r4
        0x000003b2:    2100        .!      MOVS     r1,#0
        0x000003b4:    3324        $3      ADDS     r3,r3,#0x24
        0x000003b6:    e005        ..      B        0x3c4 ; _printf_int_hex + 52
        0x000003b8:    0706        ..      LSLS     r6,r0,#28
        0x000003ba:    0900        ..      LSRS     r0,r0,#4
        0x000003bc:    0f36        6.      LSRS     r6,r6,#28
        0x000003be:    5d96        .]      LDRB     r6,[r2,r6]
        0x000003c0:    545e        ^T      STRB     r6,[r3,r1]
        0x000003c2:    1c49        I.      ADDS     r1,r1,#1
        0x000003c4:    2800        .(      CMP      r0,#0
        0x000003c6:    d1f7        ..      BNE      0x3b8 ; _printf_int_hex + 40
        0x000003c8:    7820         x      LDRB     r0,[r4,#0]
        0x000003ca:    2300        .#      MOVS     r3,#0
        0x000003cc:    0700        ..      LSLS     r0,r0,#28
        0x000003ce:    d505        ..      BPL      0x3dc ; _printf_int_hex + 76
        0x000003d0:    2d70        p-      CMP      r5,#0x70
        0x000003d2:    d003        ..      BEQ      0x3dc ; _printf_int_hex + 76
        0x000003d4:    2900        .)      CMP      r1,#0
        0x000003d6:    d001        ..      BEQ      0x3dc ; _printf_int_hex + 76
        0x000003d8:    2302        .#      MOVS     r3,#2
        0x000003da:    3211        .2      ADDS     r2,r2,#0x11
        0x000003dc:    4620         F      MOV      r0,r4
        0x000003de:    f000f915    ....    BL       _printf_int_common ; 0x60c
        0x000003e2:    bd70        p.      POP      {r4-r6,pc}
    $d
        0x000003e4:    0000212e    .!..    DCD    8494
    $t
    .text
    __aeabi_memcpy
    __rt_memcpy
        0x000003e8:    b5f8        ..      PUSH     {r3-r7,lr}
        0x000003ea:    2a04        .*      CMP      r2,#4
        0x000003ec:    d32c        ,.      BCC      0x448 ; __aeabi_memcpy + 96
        0x000003ee:    0783        ..      LSLS     r3,r0,#30
        0x000003f0:    d012        ..      BEQ      0x418 ; __aeabi_memcpy + 48
        0x000003f2:    780b        .x      LDRB     r3,[r1,#0]
        0x000003f4:    1c49        I.      ADDS     r1,r1,#1
        0x000003f6:    7003        .p      STRB     r3,[r0,#0]
        0x000003f8:    1c40        @.      ADDS     r0,r0,#1
        0x000003fa:    1e52        R.      SUBS     r2,r2,#1
        0x000003fc:    0783        ..      LSLS     r3,r0,#30
        0x000003fe:    d00b        ..      BEQ      0x418 ; __aeabi_memcpy + 48
        0x00000400:    780b        .x      LDRB     r3,[r1,#0]
        0x00000402:    1c49        I.      ADDS     r1,r1,#1
        0x00000404:    7003        .p      STRB     r3,[r0,#0]
        0x00000406:    1c40        @.      ADDS     r0,r0,#1
        0x00000408:    1e52        R.      SUBS     r2,r2,#1
        0x0000040a:    0783        ..      LSLS     r3,r0,#30
        0x0000040c:    d004        ..      BEQ      0x418 ; __aeabi_memcpy + 48
        0x0000040e:    780b        .x      LDRB     r3,[r1,#0]
        0x00000410:    1c49        I.      ADDS     r1,r1,#1
        0x00000412:    7003        .p      STRB     r3,[r0,#0]
        0x00000414:    1c40        @.      ADDS     r0,r0,#1
        0x00000416:    1e52        R.      SUBS     r2,r2,#1
        0x00000418:    078b        ..      LSLS     r3,r1,#30
        0x0000041a:    0f9b        ..      LSRS     r3,r3,#30
        0x0000041c:    d005        ..      BEQ      0x42a ; __aeabi_memcpy + 66
        0x0000041e:    1ac9        ..      SUBS     r1,r1,r3
        0x00000420:    00df        ..      LSLS     r7,r3,#3
        0x00000422:    2320         #      MOVS     r3,#0x20
        0x00000424:    1bde        ..      SUBS     r6,r3,r7
        0x00000426:    c908        ..      LDM      r1!,{r3}
        0x00000428:    e00a        ..      B        0x440 ; __aeabi_memcpy + 88
        0x0000042a:    f7fffe87    ....    BL       __aeabi_memcpy4 ; 0x13c
        0x0000042e:    bdf8        ..      POP      {r3-r7,pc}
        0x00000430:    461d        .F      MOV      r5,r3
        0x00000432:    c908        ..      LDM      r1!,{r3}
        0x00000434:    40fd        .@      LSRS     r5,r5,r7
        0x00000436:    461c        .F      MOV      r4,r3
        0x00000438:    40b4        .@      LSLS     r4,r4,r6
        0x0000043a:    432c        ,C      ORRS     r4,r4,r5
        0x0000043c:    c010        ..      STM      r0!,{r4}
        0x0000043e:    1f12        ..      SUBS     r2,r2,#4
        0x00000440:    2a04        .*      CMP      r2,#4
        0x00000442:    d2f5        ..      BCS      0x430 ; __aeabi_memcpy + 72
        0x00000444:    08f3        ..      LSRS     r3,r6,#3
        0x00000446:    1ac9        ..      SUBS     r1,r1,r3
        0x00000448:    1e52        R.      SUBS     r2,r2,#1
        0x0000044a:    d4f0        ..      BMI      0x42e ; __aeabi_memcpy + 70
        0x0000044c:    780b        .x      LDRB     r3,[r1,#0]
        0x0000044e:    1c49        I.      ADDS     r1,r1,#1
        0x00000450:    7003        .p      STRB     r3,[r0,#0]
        0x00000452:    1c40        @.      ADDS     r0,r0,#1
        0x00000454:    1e52        R.      SUBS     r2,r2,#1
        0x00000456:    d4ea        ..      BMI      0x42e ; __aeabi_memcpy + 70
        0x00000458:    780b        .x      LDRB     r3,[r1,#0]
        0x0000045a:    1c49        I.      ADDS     r1,r1,#1
        0x0000045c:    7003        .p      STRB     r3,[r0,#0]
        0x0000045e:    1c40        @.      ADDS     r0,r0,#1
        0x00000460:    2a01        .*      CMP      r2,#1
        0x00000462:    d4e4        ..      BMI      0x42e ; __aeabi_memcpy + 70
        0x00000464:    7809        .x      LDRB     r1,[r1,#0]
        0x00000466:    7001        .p      STRB     r1,[r0,#0]
        0x00000468:    bdf8        ..      POP      {r3-r7,pc}
    .text
    _memset_w
        0x0000046a:    e001        ..      B        0x470 ; _memset_w + 6
        0x0000046c:    c004        ..      STM      r0!,{r2}
        0x0000046e:    1f09        ..      SUBS     r1,r1,#4
        0x00000470:    2904        .)      CMP      r1,#4
        0x00000472:    d2fb        ..      BCS      0x46c ; _memset_w + 2
        0x00000474:    078b        ..      LSLS     r3,r1,#30
        0x00000476:    d501        ..      BPL      0x47c ; _memset_w + 18
        0x00000478:    8002        ..      STRH     r2,[r0,#0]
        0x0000047a:    1c80        ..      ADDS     r0,r0,#2
        0x0000047c:    07c9        ..      LSLS     r1,r1,#31
        0x0000047e:    d000        ..      BEQ      0x482 ; _memset_w + 24
        0x00000480:    7002        .p      STRB     r2,[r0,#0]
        0x00000482:    4770        pG      BX       lr
    _memset
        0x00000484:    2900        .)      CMP      r1,#0
        0x00000486:    d00b        ..      BEQ      0x4a0 ; _memset + 28
        0x00000488:    07c3        ..      LSLS     r3,r0,#31
        0x0000048a:    d002        ..      BEQ      0x492 ; _memset + 14
        0x0000048c:    7002        .p      STRB     r2,[r0,#0]
        0x0000048e:    1c40        @.      ADDS     r0,r0,#1
        0x00000490:    1e49        I.      SUBS     r1,r1,#1
        0x00000492:    2902        .)      CMP      r1,#2
        0x00000494:    d304        ..      BCC      0x4a0 ; _memset + 28
        0x00000496:    0783        ..      LSLS     r3,r0,#30
        0x00000498:    d502        ..      BPL      0x4a0 ; _memset + 28
        0x0000049a:    8002        ..      STRH     r2,[r0,#0]
        0x0000049c:    1c80        ..      ADDS     r0,r0,#2
        0x0000049e:    1e89        ..      SUBS     r1,r1,#2
        0x000004a0:    e7e3        ..      B        _memset_w ; 0x46a
    __aeabi_memclr
    __rt_memclr
        0x000004a2:    2200        ."      MOVS     r2,#0
        0x000004a4:    e7ee        ..      B        _memset ; 0x484
    __aeabi_memclr4
    __aeabi_memclr8
    __rt_memclr_w
        0x000004a6:    2200        ."      MOVS     r2,#0
        0x000004a8:    e7df        ..      B        _memset_w ; 0x46a
    .text
    __aeabi_uidiv
    __aeabi_uidivmod
        0x000004aa:    2200        ."      MOVS     r2,#0
        0x000004ac:    0903        ..      LSRS     r3,r0,#4
        0x000004ae:    428b        .B      CMP      r3,r1
        0x000004b0:    d32c        ,.      BCC      0x50c ; __aeabi_idiv + 78
        0x000004b2:    0a03        ..      LSRS     r3,r0,#8
        0x000004b4:    428b        .B      CMP      r3,r1
        0x000004b6:    d311        ..      BCC      0x4dc ; __aeabi_idiv + 30
        0x000004b8:    2300        .#      MOVS     r3,#0
        0x000004ba:    469c        .F      MOV      r12,r3
        0x000004bc:    e04e        N.      B        0x55c ; __aeabi_idiv + 158
    __aeabi_idiv
    __aeabi_idivmod
        0x000004be:    4603        .F      MOV      r3,r0
        0x000004c0:    430b        .C      ORRS     r3,r3,r1
        0x000004c2:    d43c        <.      BMI      0x53e ; __aeabi_idiv + 128
        0x000004c4:    2200        ."      MOVS     r2,#0
        0x000004c6:    0843        C.      LSRS     r3,r0,#1
        0x000004c8:    428b        .B      CMP      r3,r1
        0x000004ca:    d331        1.      BCC      0x530 ; __aeabi_idiv + 114
        0x000004cc:    0903        ..      LSRS     r3,r0,#4
        0x000004ce:    428b        .B      CMP      r3,r1
        0x000004d0:    d31c        ..      BCC      0x50c ; __aeabi_idiv + 78
        0x000004d2:    0a03        ..      LSRS     r3,r0,#8
        0x000004d4:    428b        .B      CMP      r3,r1
        0x000004d6:    d301        ..      BCC      0x4dc ; __aeabi_idiv + 30
        0x000004d8:    4694        .F      MOV      r12,r2
        0x000004da:    e03f        ?.      B        0x55c ; __aeabi_idiv + 158
        0x000004dc:    09c3        ..      LSRS     r3,r0,#7
        0x000004de:    428b        .B      CMP      r3,r1
        0x000004e0:    d301        ..      BCC      0x4e6 ; __aeabi_idiv + 40
        0x000004e2:    01cb        ..      LSLS     r3,r1,#7
        0x000004e4:    1ac0        ..      SUBS     r0,r0,r3
        0x000004e6:    4152        RA      ADCS     r2,r2,r2
        0x000004e8:    0983        ..      LSRS     r3,r0,#6
        0x000004ea:    428b        .B      CMP      r3,r1
        0x000004ec:    d301        ..      BCC      0x4f2 ; __aeabi_idiv + 52
        0x000004ee:    018b        ..      LSLS     r3,r1,#6
        0x000004f0:    1ac0        ..      SUBS     r0,r0,r3
        0x000004f2:    4152        RA      ADCS     r2,r2,r2
        0x000004f4:    0943        C.      LSRS     r3,r0,#5
        0x000004f6:    428b        .B      CMP      r3,r1
        0x000004f8:    d301        ..      BCC      0x4fe ; __aeabi_idiv + 64
        0x000004fa:    014b        K.      LSLS     r3,r1,#5
        0x000004fc:    1ac0        ..      SUBS     r0,r0,r3
        0x000004fe:    4152        RA      ADCS     r2,r2,r2
        0x00000500:    0903        ..      LSRS     r3,r0,#4
        0x00000502:    428b        .B      CMP      r3,r1
        0x00000504:    d301        ..      BCC      0x50a ; __aeabi_idiv + 76
        0x00000506:    010b        ..      LSLS     r3,r1,#4
        0x00000508:    1ac0        ..      SUBS     r0,r0,r3
        0x0000050a:    4152        RA      ADCS     r2,r2,r2
        0x0000050c:    08c3        ..      LSRS     r3,r0,#3
        0x0000050e:    428b        .B      CMP      r3,r1
        0x00000510:    d301        ..      BCC      0x516 ; __aeabi_idiv + 88
        0x00000512:    00cb        ..      LSLS     r3,r1,#3
        0x00000514:    1ac0        ..      SUBS     r0,r0,r3
        0x00000516:    4152        RA      ADCS     r2,r2,r2
        0x00000518:    0883        ..      LSRS     r3,r0,#2
        0x0000051a:    428b        .B      CMP      r3,r1
        0x0000051c:    d301        ..      BCC      0x522 ; __aeabi_idiv + 100
        0x0000051e:    008b        ..      LSLS     r3,r1,#2
        0x00000520:    1ac0        ..      SUBS     r0,r0,r3
        0x00000522:    4152        RA      ADCS     r2,r2,r2
        0x00000524:    0843        C.      LSRS     r3,r0,#1
        0x00000526:    428b        .B      CMP      r3,r1
        0x00000528:    d301        ..      BCC      0x52e ; __aeabi_idiv + 112
        0x0000052a:    004b        K.      LSLS     r3,r1,#1
        0x0000052c:    1ac0        ..      SUBS     r0,r0,r3
        0x0000052e:    4152        RA      ADCS     r2,r2,r2
        0x00000530:    1a41        A.      SUBS     r1,r0,r1
        0x00000532:    d200        ..      BCS      0x536 ; __aeabi_idiv + 120
        0x00000534:    4601        .F      MOV      r1,r0
        0x00000536:    4152        RA      ADCS     r2,r2,r2
        0x00000538:    4610        .F      MOV      r0,r2
        0x0000053a:    4770        pG      BX       lr
        0x0000053c:    e05d        ].      B        0x5fa ; __aeabi_idiv + 316
        0x0000053e:    0fca        ..      LSRS     r2,r1,#31
        0x00000540:    d000        ..      BEQ      0x544 ; __aeabi_idiv + 134
        0x00000542:    4249        IB      RSBS     r1,r1,#0
        0x00000544:    1003        ..      ASRS     r3,r0,#32
        0x00000546:    d300        ..      BCC      0x54a ; __aeabi_idiv + 140
        0x00000548:    4240        @B      RSBS     r0,r0,#0
        0x0000054a:    4053        S@      EORS     r3,r3,r2
        0x0000054c:    2200        ."      MOVS     r2,#0
        0x0000054e:    469c        .F      MOV      r12,r3
        0x00000550:    0903        ..      LSRS     r3,r0,#4
        0x00000552:    428b        .B      CMP      r3,r1
        0x00000554:    d32d        -.      BCC      0x5b2 ; __aeabi_idiv + 244
        0x00000556:    0a03        ..      LSRS     r3,r0,#8
        0x00000558:    428b        .B      CMP      r3,r1
        0x0000055a:    d312        ..      BCC      0x582 ; __aeabi_idiv + 196
        0x0000055c:    22fc        ."      MOVS     r2,#0xfc
        0x0000055e:    0189        ..      LSLS     r1,r1,#6
        0x00000560:    ba12        ..      REV      r2,r2
        0x00000562:    0a03        ..      LSRS     r3,r0,#8
        0x00000564:    428b        .B      CMP      r3,r1
        0x00000566:    d30c        ..      BCC      0x582 ; __aeabi_idiv + 196
        0x00000568:    0189        ..      LSLS     r1,r1,#6
        0x0000056a:    1192        ..      ASRS     r2,r2,#6
        0x0000056c:    428b        .B      CMP      r3,r1
        0x0000056e:    d308        ..      BCC      0x582 ; __aeabi_idiv + 196
        0x00000570:    0189        ..      LSLS     r1,r1,#6
        0x00000572:    1192        ..      ASRS     r2,r2,#6
        0x00000574:    428b        .B      CMP      r3,r1
        0x00000576:    d304        ..      BCC      0x582 ; __aeabi_idiv + 196
        0x00000578:    0189        ..      LSLS     r1,r1,#6
        0x0000057a:    d03a        :.      BEQ      0x5f2 ; __aeabi_idiv + 308
        0x0000057c:    1192        ..      ASRS     r2,r2,#6
        0x0000057e:    e000        ..      B        0x582 ; __aeabi_idiv + 196
        0x00000580:    0989        ..      LSRS     r1,r1,#6
        0x00000582:    09c3        ..      LSRS     r3,r0,#7
        0x00000584:    428b        .B      CMP      r3,r1
        0x00000586:    d301        ..      BCC      0x58c ; __aeabi_idiv + 206
        0x00000588:    01cb        ..      LSLS     r3,r1,#7
        0x0000058a:    1ac0        ..      SUBS     r0,r0,r3
        0x0000058c:    4152        RA      ADCS     r2,r2,r2
        0x0000058e:    0983        ..      LSRS     r3,r0,#6
        0x00000590:    428b        .B      CMP      r3,r1
        0x00000592:    d301        ..      BCC      0x598 ; __aeabi_idiv + 218
        0x00000594:    018b        ..      LSLS     r3,r1,#6
        0x00000596:    1ac0        ..      SUBS     r0,r0,r3
        0x00000598:    4152        RA      ADCS     r2,r2,r2
        0x0000059a:    0943        C.      LSRS     r3,r0,#5
        0x0000059c:    428b        .B      CMP      r3,r1
        0x0000059e:    d301        ..      BCC      0x5a4 ; __aeabi_idiv + 230
        0x000005a0:    014b        K.      LSLS     r3,r1,#5
        0x000005a2:    1ac0        ..      SUBS     r0,r0,r3
        0x000005a4:    4152        RA      ADCS     r2,r2,r2
        0x000005a6:    0903        ..      LSRS     r3,r0,#4
        0x000005a8:    428b        .B      CMP      r3,r1
        0x000005aa:    d301        ..      BCC      0x5b0 ; __aeabi_idiv + 242
        0x000005ac:    010b        ..      LSLS     r3,r1,#4
        0x000005ae:    1ac0        ..      SUBS     r0,r0,r3
        0x000005b0:    4152        RA      ADCS     r2,r2,r2
        0x000005b2:    08c3        ..      LSRS     r3,r0,#3
        0x000005b4:    428b        .B      CMP      r3,r1
        0x000005b6:    d301        ..      BCC      0x5bc ; __aeabi_idiv + 254
        0x000005b8:    00cb        ..      LSLS     r3,r1,#3
        0x000005ba:    1ac0        ..      SUBS     r0,r0,r3
        0x000005bc:    4152        RA      ADCS     r2,r2,r2
        0x000005be:    0883        ..      LSRS     r3,r0,#2
        0x000005c0:    428b        .B      CMP      r3,r1
        0x000005c2:    d301        ..      BCC      0x5c8 ; __aeabi_idiv + 266
        0x000005c4:    008b        ..      LSLS     r3,r1,#2
        0x000005c6:    1ac0        ..      SUBS     r0,r0,r3
        0x000005c8:    4152        RA      ADCS     r2,r2,r2
        0x000005ca:    d2d9        ..      BCS      0x580 ; __aeabi_idiv + 194
        0x000005cc:    0843        C.      LSRS     r3,r0,#1
        0x000005ce:    428b        .B      CMP      r3,r1
        0x000005d0:    d301        ..      BCC      0x5d6 ; __aeabi_idiv + 280
        0x000005d2:    004b        K.      LSLS     r3,r1,#1
        0x000005d4:    1ac0        ..      SUBS     r0,r0,r3
        0x000005d6:    4152        RA      ADCS     r2,r2,r2
        0x000005d8:    1a41        A.      SUBS     r1,r0,r1
        0x000005da:    d200        ..      BCS      0x5de ; __aeabi_idiv + 288
        0x000005dc:    4601        .F      MOV      r1,r0
        0x000005de:    4663        cF      MOV      r3,r12
        0x000005e0:    4152        RA      ADCS     r2,r2,r2
        0x000005e2:    105b        [.      ASRS     r3,r3,#1
        0x000005e4:    4610        .F      MOV      r0,r2
        0x000005e6:    d301        ..      BCC      0x5ec ; __aeabi_idiv + 302
        0x000005e8:    4240        @B      RSBS     r0,r0,#0
        0x000005ea:    2b00        .+      CMP      r3,#0
        0x000005ec:    d500        ..      BPL      0x5f0 ; __aeabi_idiv + 306
        0x000005ee:    4249        IB      RSBS     r1,r1,#0
        0x000005f0:    4770        pG      BX       lr
        0x000005f2:    4663        cF      MOV      r3,r12
        0x000005f4:    105b        [.      ASRS     r3,r3,#1
        0x000005f6:    d300        ..      BCC      0x5fa ; __aeabi_idiv + 316
        0x000005f8:    4240        @B      RSBS     r0,r0,#0
        0x000005fa:    b501        ..      PUSH     {r0,lr}
        0x000005fc:    2000        .       MOVS     r0,#0
        0x000005fe:    46c0        .F      MOV      r8,r8
        0x00000600:    46c0        .F      MOV      r8,r8
        0x00000602:    bd02        ..      POP      {r1,pc}
    .text
    __use_two_region_memory
        0x00000604:    4770        pG      BX       lr
    __rt_heap_escrow$2region
        0x00000606:    4770        pG      BX       lr
    __rt_heap_expand$2region
        0x00000608:    4770        pG      BX       lr
    .text
    __I$use$semihosting
    __use_no_semihosting_swi
        0x0000060a:    4770        pG      BX       lr
    .text
    _printf_int_common
        0x0000060c:    b5ff        ..      PUSH     {r0-r7,lr}
        0x0000060e:    4604        .F      MOV      r4,r0
        0x00000610:    460d        .F      MOV      r5,r1
        0x00000612:    b081        ..      SUB      sp,sp,#4
        0x00000614:    3024        $0      ADDS     r0,r0,#0x24
        0x00000616:    9000        ..      STR      r0,[sp,#0]
        0x00000618:    6821        !h      LDR      r1,[r4,#0]
        0x0000061a:    0688        ..      LSLS     r0,r1,#26
        0x0000061c:    d504        ..      BPL      0x628 ; _printf_int_common + 28
        0x0000061e:    2210        ."      MOVS     r2,#0x10
        0x00000620:    69e0        .i      LDR      r0,[r4,#0x1c]
        0x00000622:    4391        .C      BICS     r1,r1,r2
        0x00000624:    6021        !`      STR      r1,[r4,#0]
        0x00000626:    e000        ..      B        0x62a ; _printf_int_common + 30
        0x00000628:    2001        .       MOVS     r0,#1
        0x0000062a:    42a8        .B      CMP      r0,r5
        0x0000062c:    dd01        ..      BLE      0x632 ; _printf_int_common + 38
        0x0000062e:    1b47        G.      SUBS     r7,r0,r5
        0x00000630:    e000        ..      B        0x634 ; _printf_int_common + 40
        0x00000632:    2700        .'      MOVS     r7,#0
        0x00000634:    9804        ..      LDR      r0,[sp,#0x10]
        0x00000636:    69a1        .i      LDR      r1,[r4,#0x18]
        0x00000638:    197a        z.      ADDS     r2,r7,r5
        0x0000063a:    1810        ..      ADDS     r0,r2,r0
        0x0000063c:    1a08        ..      SUBS     r0,r1,r0
        0x0000063e:    61a0        .a      STR      r0,[r4,#0x18]
        0x00000640:    7820         x      LDRB     r0,[r4,#0]
        0x00000642:    06c0        ..      LSLS     r0,r0,#27
        0x00000644:    d402        ..      BMI      0x64c ; _printf_int_common + 64
        0x00000646:    4620         F      MOV      r0,r4
        0x00000648:    46c0        .F      MOV      r8,r8
        0x0000064a:    46c0        .F      MOV      r8,r8
        0x0000064c:    2600        .&      MOVS     r6,#0
        0x0000064e:    e008        ..      B        0x662 ; _printf_int_common + 86
        0x00000650:    9803        ..      LDR      r0,[sp,#0xc]
        0x00000652:    6862        bh      LDR      r2,[r4,#4]
        0x00000654:    68a1        .h      LDR      r1,[r4,#8]
        0x00000656:    5d80        .]      LDRB     r0,[r0,r6]
        0x00000658:    4790        .G      BLX      r2
        0x0000065a:    6a20         j      LDR      r0,[r4,#0x20]
        0x0000065c:    1c40        @.      ADDS     r0,r0,#1
        0x0000065e:    1c76        v.      ADDS     r6,r6,#1
        0x00000660:    6220         b      STR      r0,[r4,#0x20]
        0x00000662:    9804        ..      LDR      r0,[sp,#0x10]
        0x00000664:    4286        .B      CMP      r6,r0
        0x00000666:    dbf3        ..      BLT      0x650 ; _printf_int_common + 68
        0x00000668:    7820         x      LDRB     r0,[r4,#0]
        0x0000066a:    06c0        ..      LSLS     r0,r0,#27
        0x0000066c:    d50a        ..      BPL      0x684 ; _printf_int_common + 120
        0x0000066e:    4620         F      MOV      r0,r4
        0x00000670:    46c0        .F      MOV      r8,r8
        0x00000672:    46c0        .F      MOV      r8,r8
        0x00000674:    e006        ..      B        0x684 ; _printf_int_common + 120
        0x00000676:    6862        bh      LDR      r2,[r4,#4]
        0x00000678:    68a1        .h      LDR      r1,[r4,#8]
        0x0000067a:    2030        0       MOVS     r0,#0x30
        0x0000067c:    4790        .G      BLX      r2
        0x0000067e:    6a20         j      LDR      r0,[r4,#0x20]
        0x00000680:    1c40        @.      ADDS     r0,r0,#1
        0x00000682:    6220         b      STR      r0,[r4,#0x20]
        0x00000684:    4638        8F      MOV      r0,r7
        0x00000686:    1e7f        ..      SUBS     r7,r7,#1
        0x00000688:    2800        .(      CMP      r0,#0
        0x0000068a:    dcf4        ..      BGT      0x676 ; _printf_int_common + 106
        0x0000068c:    e007        ..      B        0x69e ; _printf_int_common + 146
        0x0000068e:    9800        ..      LDR      r0,[sp,#0]
        0x00000690:    6862        bh      LDR      r2,[r4,#4]
        0x00000692:    68a1        .h      LDR      r1,[r4,#8]
        0x00000694:    5d40        @]      LDRB     r0,[r0,r5]
        0x00000696:    4790        .G      BLX      r2
        0x00000698:    6a20         j      LDR      r0,[r4,#0x20]
        0x0000069a:    1c40        @.      ADDS     r0,r0,#1
        0x0000069c:    6220         b      STR      r0,[r4,#0x20]
        0x0000069e:    4628        (F      MOV      r0,r5
        0x000006a0:    1e6d        m.      SUBS     r5,r5,#1
        0x000006a2:    2800        .(      CMP      r0,#0
        0x000006a4:    dcf3        ..      BGT      0x68e ; _printf_int_common + 130
        0x000006a6:    4620         F      MOV      r0,r4
        0x000006a8:    46c0        .F      MOV      r8,r8
        0x000006aa:    46c0        .F      MOV      r8,r8
        0x000006ac:    7820         x      LDRB     r0,[r4,#0]
        0x000006ae:    0600        ..      LSLS     r0,r0,#24
        0x000006b0:    d502        ..      BPL      0x6b8 ; _printf_int_common + 172
        0x000006b2:    2002        .       MOVS     r0,#2
        0x000006b4:    b005        ..      ADD      sp,sp,#0x14
        0x000006b6:    bdf0        ..      POP      {r4-r7,pc}
        0x000006b8:    2001        .       MOVS     r0,#1
        0x000006ba:    e7fb        ..      B        0x6b4 ; _printf_int_common + 168
    .text
    _printf_char_file
        0x000006bc:    4b08        .K      LDR      r3,[pc,#32] ; [0x6e0] = 0x885
        0x000006be:    b570        p.      PUSH     {r4-r6,lr}
        0x000006c0:    460d        .F      MOV      r5,r1
        0x000006c2:    447b        {D      ADD      r3,r3,pc
        0x000006c4:    f000f827    ..'.    BL       _printf_char_common ; 0x716
        0x000006c8:    4604        .F      MOV      r4,r0
        0x000006ca:    4628        (F      MOV      r0,r5
        0x000006cc:    f000fc00    ....    BL       ferror ; 0xed0
        0x000006d0:    2800        .(      CMP      r0,#0
        0x000006d2:    d002        ..      BEQ      0x6da ; _printf_char_file + 30
        0x000006d4:    2000        .       MOVS     r0,#0
        0x000006d6:    43c0        .C      MVNS     r0,r0
        0x000006d8:    bd70        p.      POP      {r4-r6,pc}
        0x000006da:    4620         F      MOV      r0,r4
        0x000006dc:    bd70        p.      POP      {r4-r6,pc}
    $d
        0x000006de:    0000        ..      DCW    0
        0x000006e0:    00000885    ....    DCD    2181
    $t
    .text
    __rt_udiv10
        0x000006e4:    4601        .F      MOV      r1,r0
        0x000006e6:    0880        ..      LSRS     r0,r0,#2
        0x000006e8:    1a08        ..      SUBS     r0,r1,r0
        0x000006ea:    0902        ..      LSRS     r2,r0,#4
        0x000006ec:    1810        ..      ADDS     r0,r2,r0
        0x000006ee:    0a02        ..      LSRS     r2,r0,#8
        0x000006f0:    1810        ..      ADDS     r0,r2,r0
        0x000006f2:    0c02        ..      LSRS     r2,r0,#16
        0x000006f4:    1810        ..      ADDS     r0,r2,r0
        0x000006f6:    08c0        ..      LSRS     r0,r0,#3
        0x000006f8:    0082        ..      LSLS     r2,r0,#2
        0x000006fa:    1812        ..      ADDS     r2,r2,r0
        0x000006fc:    0052        R.      LSLS     r2,r2,#1
        0x000006fe:    1a89        ..      SUBS     r1,r1,r2
        0x00000700:    e001        ..      B        0x706 ; __rt_udiv10 + 34
        0x00000702:    1c40        @.      ADDS     r0,r0,#1
        0x00000704:    390a        .9      SUBS     r1,r1,#0xa
        0x00000706:    290a        .)      CMP      r1,#0xa
        0x00000708:    d2fb        ..      BCS      0x702 ; __rt_udiv10 + 30
        0x0000070a:    4770        pG      BX       lr
    .text
    _printf_input_char
        0x0000070c:    6901        .i      LDR      r1,[r0,#0x10]
        0x0000070e:    1c4a        J.      ADDS     r2,r1,#1
        0x00000710:    6102        .a      STR      r2,[r0,#0x10]
        0x00000712:    7808        .x      LDRB     r0,[r1,#0]
        0x00000714:    4770        pG      BX       lr
    _printf_char_common
        0x00000716:    b500        ..      PUSH     {lr}
        0x00000718:    b08f        ..      SUB      sp,sp,#0x3c
        0x0000071a:    9102        ..      STR      r1,[sp,#8]
        0x0000071c:    2100        .!      MOVS     r1,#0
        0x0000071e:    9105        ..      STR      r1,[sp,#0x14]
        0x00000720:    4905        .I      LDR      r1,[pc,#20] ; [0x738] = 0xffffffe5
        0x00000722:    9301        ..      STR      r3,[sp,#4]
        0x00000724:    4479        yD      ADD      r1,r1,pc
        0x00000726:    9103        ..      STR      r1,[sp,#0xc]
        0x00000728:    4611        .F      MOV      r1,r2
        0x0000072a:    9004        ..      STR      r0,[sp,#0x10]
        0x0000072c:    4668        hF      MOV      r0,sp
        0x0000072e:    f7fffdc3    ....    BL       __printf ; 0x2b8
        0x00000732:    b00f        ..      ADD      sp,sp,#0x3c
        0x00000734:    bd00        ..      POP      {pc}
    $d
        0x00000736:    0000        ..      DCW    0
        0x00000738:    ffffffe5    ....    DCD    4294967269
    $t
    .text
    __user_setup_stackheap
        0x0000073c:    4675        uF      MOV      r5,lr
        0x0000073e:    f000f825    ..%.    BL       __user_libspace ; 0x78c
        0x00000742:    46ae        .F      MOV      lr,r5
        0x00000744:    0005        ..      MOVS     r5,r0
        0x00000746:    4669        iF      MOV      r1,sp
        0x00000748:    4653        SF      MOV      r3,r10
        0x0000074a:    08c0        ..      LSRS     r0,r0,#3
        0x0000074c:    00c0        ..      LSLS     r0,r0,#3
        0x0000074e:    4685        .F      MOV      sp,r0
        0x00000750:    b018        ..      ADD      sp,sp,#0x60
        0x00000752:    b520         .      PUSH     {r5,lr}
        0x00000754:    f7fffd8c    ....    BL       __user_initial_stackheap ; 0x270
        0x00000758:    bc60        `.      POP      {r5,r6}
        0x0000075a:    2700        .'      MOVS     r7,#0
        0x0000075c:    0849        I.      LSRS     r1,r1,#1
        0x0000075e:    46b6        .F      MOV      lr,r6
        0x00000760:    2600        .&      MOVS     r6,#0
        0x00000762:    c5c0        ..      STM      r5!,{r6,r7}
        0x00000764:    c5c0        ..      STM      r5!,{r6,r7}
        0x00000766:    c5c0        ..      STM      r5!,{r6,r7}
        0x00000768:    c5c0        ..      STM      r5!,{r6,r7}
        0x0000076a:    c5c0        ..      STM      r5!,{r6,r7}
        0x0000076c:    c5c0        ..      STM      r5!,{r6,r7}
        0x0000076e:    c5c0        ..      STM      r5!,{r6,r7}
        0x00000770:    c5c0        ..      STM      r5!,{r6,r7}
        0x00000772:    3d40        @=      SUBS     r5,r5,#0x40
        0x00000774:    0049        I.      LSLS     r1,r1,#1
        0x00000776:    468d        .F      MOV      sp,r1
        0x00000778:    4770        pG      BX       lr
    .text
    exit
        0x0000077a:    b510        ..      PUSH     {r4,lr}
        0x0000077c:    4604        .F      MOV      r4,r0
        0x0000077e:    46c0        .F      MOV      r8,r8
        0x00000780:    46c0        .F      MOV      r8,r8
        0x00000782:    4620         F      MOV      r0,r4
        0x00000784:    f7fffcd4    ....    BL       __rt_exit ; 0x130
        0x00000788:    bd10        ..      POP      {r4,pc}
        0x0000078a:    0000        ..      MOVS     r0,r0
    .text
    __user_libspace
    __user_perproc_libspace
    __user_perthread_libspace
        0x0000078c:    4800        .H      LDR      r0,[pc,#0] ; [0x790] = 0x200004f4
        0x0000078e:    4770        pG      BX       lr
    $d
        0x00000790:    200004f4    ...     DCD    536872180
    $t
    i.GPI_control
    GPI_control
        0x00000794:    b5ff        ..      PUSH     {r0-r7,lr}
        0x00000796:    4605        .F      MOV      r5,r0
        0x00000798:    460e        .F      MOV      r6,r1
        0x0000079a:    4617        .F      MOV      r7,r2
        0x0000079c:    2400        .$      MOVS     r4,#0
        0x0000079e:    e00f        ..      B        0x7c0 ; GPI_control + 44
        0x000007a0:    4628        (F      MOV      r0,r5
        0x000007a2:    4120         A      ASRS     r0,r0,r4
        0x000007a4:    07c0        ..      LSLS     r0,r0,#31
        0x000007a6:    0fc0        ..      LSRS     r0,r0,#31
        0x000007a8:    2800        .(      CMP      r0,#0
        0x000007aa:    d004        ..      BEQ      0x7b6 ; GPI_control + 34
        0x000007ac:    1de0        ..      ADDS     r0,r4,#7
        0x000007ae:    30fe        .0      ADDS     r0,r0,#0xfe
        0x000007b0:    f001fdca    ....    BL       set_asc_bit ; 0x2348
        0x000007b4:    e003        ..      B        0x7be ; GPI_control + 42
        0x000007b6:    1de0        ..      ADDS     r0,r4,#7
        0x000007b8:    30fe        .0      ADDS     r0,r0,#0xfe
        0x000007ba:    f000faab    ....    BL       clear_asc_bit ; 0xd14
        0x000007be:    1c64        d.      ADDS     r4,r4,#1
        0x000007c0:    2c01        .,      CMP      r4,#1
        0x000007c2:    dded        ..      BLE      0x7a0 ; GPI_control + 12
        0x000007c4:    2400        .$      MOVS     r4,#0
        0x000007c6:    e011        ..      B        0x7ec ; GPI_control + 88
        0x000007c8:    4630        0F      MOV      r0,r6
        0x000007ca:    4120         A      ASRS     r0,r0,r4
        0x000007cc:    07c0        ..      LSLS     r0,r0,#31
        0x000007ce:    0fc0        ..      LSRS     r0,r0,#31
        0x000007d0:    2800        .(      CMP      r0,#0
        0x000007d2:    d005        ..      BEQ      0x7e0 ; GPI_control + 76
        0x000007d4:    4620         F      MOV      r0,r4
        0x000007d6:    30ff        .0      ADDS     r0,r0,#0xff
        0x000007d8:    3008        .0      ADDS     r0,r0,#8
        0x000007da:    f001fdb5    ....    BL       set_asc_bit ; 0x2348
        0x000007de:    e004        ..      B        0x7ea ; GPI_control + 86
        0x000007e0:    4620         F      MOV      r0,r4
        0x000007e2:    30ff        .0      ADDS     r0,r0,#0xff
        0x000007e4:    3008        .0      ADDS     r0,r0,#8
        0x000007e6:    f000fa95    ....    BL       clear_asc_bit ; 0xd14
        0x000007ea:    1c64        d.      ADDS     r4,r4,#1
        0x000007ec:    2c01        .,      CMP      r4,#1
        0x000007ee:    ddeb        ..      BLE      0x7c8 ; GPI_control + 52
        0x000007f0:    2400        .$      MOVS     r4,#0
        0x000007f2:    e011        ..      B        0x818 ; GPI_control + 132
        0x000007f4:    4638        8F      MOV      r0,r7
        0x000007f6:    4120         A      ASRS     r0,r0,r4
        0x000007f8:    07c0        ..      LSLS     r0,r0,#31
        0x000007fa:    0fc0        ..      LSRS     r0,r0,#31
        0x000007fc:    2800        .(      CMP      r0,#0
        0x000007fe:    d005        ..      BEQ      0x80c ; GPI_control + 120
        0x00000800:    4620         F      MOV      r0,r4
        0x00000802:    30ff        .0      ADDS     r0,r0,#0xff
        0x00000804:    300a        .0      ADDS     r0,r0,#0xa
        0x00000806:    f001fd9f    ....    BL       set_asc_bit ; 0x2348
        0x0000080a:    e004        ..      B        0x816 ; GPI_control + 130
        0x0000080c:    4620         F      MOV      r0,r4
        0x0000080e:    30ff        .0      ADDS     r0,r0,#0xff
        0x00000810:    300a        .0      ADDS     r0,r0,#0xa
        0x00000812:    f000fa7f    ....    BL       clear_asc_bit ; 0xd14
        0x00000816:    1c64        d.      ADDS     r4,r4,#1
        0x00000818:    2c01        .,      CMP      r4,#1
        0x0000081a:    ddeb        ..      BLE      0x7f4 ; GPI_control + 96
        0x0000081c:    2400        .$      MOVS     r4,#0
        0x0000081e:    e011        ..      B        0x844 ; GPI_control + 176
        0x00000820:    9803        ..      LDR      r0,[sp,#0xc]
        0x00000822:    4120         A      ASRS     r0,r0,r4
        0x00000824:    07c0        ..      LSLS     r0,r0,#31
        0x00000826:    0fc0        ..      LSRS     r0,r0,#31
        0x00000828:    2800        .(      CMP      r0,#0
        0x0000082a:    d005        ..      BEQ      0x838 ; GPI_control + 164
        0x0000082c:    4620         F      MOV      r0,r4
        0x0000082e:    30ff        .0      ADDS     r0,r0,#0xff
        0x00000830:    300c        .0      ADDS     r0,r0,#0xc
        0x00000832:    f001fd89    ....    BL       set_asc_bit ; 0x2348
        0x00000836:    e004        ..      B        0x842 ; GPI_control + 174
        0x00000838:    4620         F      MOV      r0,r4
        0x0000083a:    30ff        .0      ADDS     r0,r0,#0xff
        0x0000083c:    300c        .0      ADDS     r0,r0,#0xc
        0x0000083e:    f000fa69    ..i.    BL       clear_asc_bit ; 0xd14
        0x00000842:    1c64        d.      ADDS     r4,r4,#1
        0x00000844:    2c01        .,      CMP      r4,#1
        0x00000846:    ddeb        ..      BLE      0x820 ; GPI_control + 140
        0x00000848:    bdff        ..      POP      {r0-r7,pc}
        0x0000084a:    0000        ..      MOVS     r0,r0
    i.GPI_enables
    GPI_enables
        0x0000084c:    b530        0.      PUSH     {r4,r5,lr}
        0x0000084e:    b089        ..      SUB      sp,sp,#0x24
        0x00000850:    4605        .F      MOV      r5,r0
        0x00000852:    2220         "      MOVS     r2,#0x20
        0x00000854:    490d        .I      LDR      r1,[pc,#52] ; [0x88c] = 0x24b8
        0x00000856:    a801        ..      ADD      r0,sp,#4
        0x00000858:    f7fffc70    ..p.    BL       __aeabi_memcpy4 ; 0x13c
        0x0000085c:    2400        .$      MOVS     r4,#0
        0x0000085e:    e011        ..      B        0x884 ; GPI_enables + 56
        0x00000860:    4628        (F      MOV      r0,r5
        0x00000862:    40e0        .@      LSRS     r0,r0,r4
        0x00000864:    07c0        ..      LSLS     r0,r0,#31
        0x00000866:    0fc0        ..      LSRS     r0,r0,#31
        0x00000868:    2800        .(      CMP      r0,#0
        0x0000086a:    d005        ..      BEQ      0x878 ; GPI_enables + 44
        0x0000086c:    0061        a.      LSLS     r1,r4,#1
        0x0000086e:    aa01        ..      ADD      r2,sp,#4
        0x00000870:    5a50        PZ      LDRH     r0,[r2,r1]
        0x00000872:    f001fd69    ..i.    BL       set_asc_bit ; 0x2348
        0x00000876:    e004        ..      B        0x882 ; GPI_enables + 54
        0x00000878:    0061        a.      LSLS     r1,r4,#1
        0x0000087a:    aa01        ..      ADD      r2,sp,#4
        0x0000087c:    5a50        PZ      LDRH     r0,[r2,r1]
        0x0000087e:    f000fa49    ..I.    BL       clear_asc_bit ; 0xd14
        0x00000882:    1c64        d.      ADDS     r4,r4,#1
        0x00000884:    2c0f        .,      CMP      r4,#0xf
        0x00000886:    d9eb        ..      BLS      0x860 ; GPI_enables + 20
        0x00000888:    b009        ..      ADD      sp,sp,#0x24
        0x0000088a:    bd30        0.      POP      {r4,r5,pc}
    $d
        0x0000088c:    000024b8    .$..    DCD    9400
    $t
    i.GPO_control
    GPO_control
        0x00000890:    b5ff        ..      PUSH     {r0-r7,lr}
        0x00000892:    4605        .F      MOV      r5,r0
        0x00000894:    460e        .F      MOV      r6,r1
        0x00000896:    4617        .F      MOV      r7,r2
        0x00000898:    2400        .$      MOVS     r4,#0
        0x0000089a:    e00f        ..      B        0x8bc ; GPO_control + 44
        0x0000089c:    4628        (F      MOV      r0,r5
        0x0000089e:    4120         A      ASRS     r0,r0,r4
        0x000008a0:    07c0        ..      LSLS     r0,r0,#31
        0x000008a2:    0fc0        ..      LSRS     r0,r0,#31
        0x000008a4:    2800        .(      CMP      r0,#0
        0x000008a6:    d004        ..      BEQ      0x8b2 ; GPO_control + 34
        0x000008a8:    4620         F      MOV      r0,r4
        0x000008aa:    30f5        .0      ADDS     r0,r0,#0xf5
        0x000008ac:    f001fd4c    ..L.    BL       set_asc_bit ; 0x2348
        0x000008b0:    e003        ..      B        0x8ba ; GPO_control + 42
        0x000008b2:    4620         F      MOV      r0,r4
        0x000008b4:    30f5        .0      ADDS     r0,r0,#0xf5
        0x000008b6:    f000fa2d    ..-.    BL       clear_asc_bit ; 0xd14
        0x000008ba:    1c64        d.      ADDS     r4,r4,#1
        0x000008bc:    2c03        .,      CMP      r4,#3
        0x000008be:    dded        ..      BLE      0x89c ; GPO_control + 12
        0x000008c0:    2400        .$      MOVS     r4,#0
        0x000008c2:    e00f        ..      B        0x8e4 ; GPO_control + 84
        0x000008c4:    4630        0F      MOV      r0,r6
        0x000008c6:    4120         A      ASRS     r0,r0,r4
        0x000008c8:    07c0        ..      LSLS     r0,r0,#31
        0x000008ca:    0fc0        ..      LSRS     r0,r0,#31
        0x000008cc:    2800        .(      CMP      r0,#0
        0x000008ce:    d004        ..      BEQ      0x8da ; GPO_control + 74
        0x000008d0:    4620         F      MOV      r0,r4
        0x000008d2:    30f9        .0      ADDS     r0,r0,#0xf9
        0x000008d4:    f001fd38    ..8.    BL       set_asc_bit ; 0x2348
        0x000008d8:    e003        ..      B        0x8e2 ; GPO_control + 82
        0x000008da:    4620         F      MOV      r0,r4
        0x000008dc:    30f9        .0      ADDS     r0,r0,#0xf9
        0x000008de:    f000fa19    ....    BL       clear_asc_bit ; 0xd14
        0x000008e2:    1c64        d.      ADDS     r4,r4,#1
        0x000008e4:    2c03        .,      CMP      r4,#3
        0x000008e6:    dded        ..      BLE      0x8c4 ; GPO_control + 52
        0x000008e8:    2400        .$      MOVS     r4,#0
        0x000008ea:    e00f        ..      B        0x90c ; GPO_control + 124
        0x000008ec:    4638        8F      MOV      r0,r7
        0x000008ee:    4120         A      ASRS     r0,r0,r4
        0x000008f0:    07c0        ..      LSLS     r0,r0,#31
        0x000008f2:    0fc0        ..      LSRS     r0,r0,#31
        0x000008f4:    2800        .(      CMP      r0,#0
        0x000008f6:    d004        ..      BEQ      0x902 ; GPO_control + 114
        0x000008f8:    4620         F      MOV      r0,r4
        0x000008fa:    30fd        .0      ADDS     r0,r0,#0xfd
        0x000008fc:    f001fd24    ..$.    BL       set_asc_bit ; 0x2348
        0x00000900:    e003        ..      B        0x90a ; GPO_control + 122
        0x00000902:    4620         F      MOV      r0,r4
        0x00000904:    30fd        .0      ADDS     r0,r0,#0xfd
        0x00000906:    f000fa05    ....    BL       clear_asc_bit ; 0xd14
        0x0000090a:    1c64        d.      ADDS     r4,r4,#1
        0x0000090c:    2c03        .,      CMP      r4,#3
        0x0000090e:    dded        ..      BLE      0x8ec ; GPO_control + 92
        0x00000910:    2400        .$      MOVS     r4,#0
        0x00000912:    e00f        ..      B        0x934 ; GPO_control + 164
        0x00000914:    9803        ..      LDR      r0,[sp,#0xc]
        0x00000916:    4120         A      ASRS     r0,r0,r4
        0x00000918:    07c0        ..      LSLS     r0,r0,#31
        0x0000091a:    0fc0        ..      LSRS     r0,r0,#31
        0x0000091c:    2800        .(      CMP      r0,#0
        0x0000091e:    d004        ..      BEQ      0x92a ; GPO_control + 154
        0x00000920:    1de0        ..      ADDS     r0,r4,#7
        0x00000922:    30fa        .0      ADDS     r0,r0,#0xfa
        0x00000924:    f001fd10    ....    BL       set_asc_bit ; 0x2348
        0x00000928:    e003        ..      B        0x932 ; GPO_control + 162
        0x0000092a:    1de0        ..      ADDS     r0,r4,#7
        0x0000092c:    30fa        .0      ADDS     r0,r0,#0xfa
        0x0000092e:    f000f9f1    ....    BL       clear_asc_bit ; 0xd14
        0x00000932:    1c64        d.      ADDS     r4,r4,#1
        0x00000934:    2c03        .,      CMP      r4,#3
        0x00000936:    dded        ..      BLE      0x914 ; GPO_control + 132
        0x00000938:    bdff        ..      POP      {r0-r7,pc}
        0x0000093a:    0000        ..      MOVS     r0,r0
    i.GPO_enables
    GPO_enables
        0x0000093c:    b530        0.      PUSH     {r4,r5,lr}
        0x0000093e:    b089        ..      SUB      sp,sp,#0x24
        0x00000940:    4605        .F      MOV      r5,r0
        0x00000942:    2220         "      MOVS     r2,#0x20
        0x00000944:    490d        .I      LDR      r1,[pc,#52] ; [0x97c] = 0x2498
        0x00000946:    a801        ..      ADD      r0,sp,#4
        0x00000948:    f7fffbf8    ....    BL       __aeabi_memcpy4 ; 0x13c
        0x0000094c:    2400        .$      MOVS     r4,#0
        0x0000094e:    e011        ..      B        0x974 ; GPO_enables + 56
        0x00000950:    4628        (F      MOV      r0,r5
        0x00000952:    40e0        .@      LSRS     r0,r0,r4
        0x00000954:    07c0        ..      LSLS     r0,r0,#31
        0x00000956:    0fc0        ..      LSRS     r0,r0,#31
        0x00000958:    2800        .(      CMP      r0,#0
        0x0000095a:    d005        ..      BEQ      0x968 ; GPO_enables + 44
        0x0000095c:    0061        a.      LSLS     r1,r4,#1
        0x0000095e:    aa01        ..      ADD      r2,sp,#4
        0x00000960:    5a50        PZ      LDRH     r0,[r2,r1]
        0x00000962:    f000f9d7    ....    BL       clear_asc_bit ; 0xd14
        0x00000966:    e004        ..      B        0x972 ; GPO_enables + 54
        0x00000968:    0061        a.      LSLS     r1,r4,#1
        0x0000096a:    aa01        ..      ADD      r2,sp,#4
        0x0000096c:    5a50        PZ      LDRH     r0,[r2,r1]
        0x0000096e:    f001fceb    ....    BL       set_asc_bit ; 0x2348
        0x00000972:    1c64        d.      ADDS     r4,r4,#1
        0x00000974:    2c0f        .,      CMP      r4,#0xf
        0x00000976:    d9eb        ..      BLS      0x950 ; GPO_enables + 20
        0x00000978:    b009        ..      ADD      sp,sp,#0x24
        0x0000097a:    bd30        0.      POP      {r4,r5,pc}
    $d
        0x0000097c:    00002498    .$..    DCD    9368
    $t
    i.LC_FREQCHANGE
    LC_FREQCHANGE
        0x00000980:    b5f7        ..      PUSH     {r0-r2,r4-r7,lr}
        0x00000982:    b084        ..      SUB      sp,sp,#0x10
        0x00000984:    4605        .F      MOV      r5,r0
        0x00000986:    06e8        ..      LSLS     r0,r5,#27
        0x00000988:    0ec0        ..      LSRS     r0,r0,#27
        0x0000098a:    9003        ..      STR      r0,[sp,#0xc]
        0x0000098c:    9805        ..      LDR      r0,[sp,#0x14]
        0x0000098e:    06c0        ..      LSLS     r0,r0,#27
        0x00000990:    0ec0        ..      LSRS     r0,r0,#27
        0x00000992:    9002        ..      STR      r0,[sp,#8]
        0x00000994:    9806        ..      LDR      r0,[sp,#0x18]
        0x00000996:    06c0        ..      LSLS     r0,r0,#27
        0x00000998:    0ec0        ..      LSRS     r0,r0,#27
        0x0000099a:    9001        ..      STR      r0,[sp,#4]
        0x0000099c:    9803        ..      LDR      r0,[sp,#0xc]
        0x0000099e:    f000fa9a    ....    BL       flipChar ; 0xed6
        0x000009a2:    9000        ..      STR      r0,[sp,#0]
        0x000009a4:    9802        ..      LDR      r0,[sp,#8]
        0x000009a6:    f000fa96    ....    BL       flipChar ; 0xed6
        0x000009aa:    4606        .F      MOV      r6,r0
        0x000009ac:    9801        ..      LDR      r0,[sp,#4]
        0x000009ae:    f000fa92    ....    BL       flipChar ; 0xed6
        0x000009b2:    4604        .F      MOV      r4,r0
        0x000009b4:    2300        .#      MOVS     r3,#0
        0x000009b6:    2700        .'      MOVS     r7,#0
        0x000009b8:    bf00        ..      NOP      
        0x000009ba:    bf00        ..      NOP      
        0x000009bc:    9800        ..      LDR      r0,[sp,#0]
        0x000009be:    9000        ..      STR      r0,[sp,#0]
        0x000009c0:    2078        x       MOVS     r0,#0x78
        0x000009c2:    4020         @      ANDS     r0,r0,r4
        0x000009c4:    0240        @.      LSLS     r0,r0,#9
        0x000009c6:    4303        .C      ORRS     r3,r3,r0
        0x000009c8:    00f0        ..      LSLS     r0,r6,#3
        0x000009ca:    4303        .C      ORRS     r3,r3,r0
        0x000009cc:    9800        ..      LDR      r0,[sp,#0]
        0x000009ce:    08c0        ..      LSRS     r0,r0,#3
        0x000009d0:    4303        .C      ORRS     r3,r3,r0
        0x000009d2:    2080        .       MOVS     r0,#0x80
        0x000009d4:    4020         @      ANDS     r0,r0,r4
        0x000009d6:    09c0        ..      LSRS     r0,r0,#7
        0x000009d8:    4307        .C      ORRS     r7,r7,r0
        0x000009da:    4803        .H      LDR      r0,[pc,#12] ; [0x9e8] = 0x521c0000
        0x000009dc:    6003        .`      STR      r3,[r0,#0]
        0x000009de:    4803        .H      LDR      r0,[pc,#12] ; [0x9ec] = 0x52200000
        0x000009e0:    6007        .`      STR      r7,[r0,#0]
        0x000009e2:    b007        ..      ADD      sp,sp,#0x1c
        0x000009e4:    bdf0        ..      POP      {r4-r7,pc}
    $d
        0x000009e6:    0000        ..      DCW    0
        0x000009e8:    521c0000    ...R    DCD    1377566720
        0x000009ec:    52200000    .. R    DCD    1377828864
    $t
    i.LC_monotonic
    LC_monotonic
        0x000009f0:    b5f0        ..      PUSH     {r4-r7,lr}
        0x000009f2:    b085        ..      SUB      sp,sp,#0x14
        0x000009f4:    4605        .F      MOV      r5,r0
        0x000009f6:    2600        .&      MOVS     r6,#0
        0x000009f8:    2700        .'      MOVS     r7,#0
        0x000009fa:    2017        .       MOVS     r0,#0x17
        0x000009fc:    9003        ..      STR      r0,[sp,#0xc]
        0x000009fe:    208c        .       MOVS     r0,#0x8c
        0x00000a00:    9002        ..      STR      r0,[sp,#8]
        0x00000a02:    4628        (F      MOV      r0,r5
        0x00000a04:    9902        ..      LDR      r1,[sp,#8]
        0x00000a06:    f7fffd5a    ..Z.    BL       __aeabi_idiv ; 0x4be
        0x00000a0a:    3013        .0      ADDS     r0,r0,#0x13
        0x00000a0c:    b2c0        ..      UXTB     r0,r0
        0x00000a0e:    9000        ..      STR      r0,[sp,#0]
        0x00000a10:    4628        (F      MOV      r0,r5
        0x00000a12:    9902        ..      LDR      r1,[sp,#8]
        0x00000a14:    f7fffd53    ..S.    BL       __aeabi_idiv ; 0x4be
        0x00000a18:    460d        .F      MOV      r5,r1
        0x00000a1a:    4628        (F      MOV      r0,r5
        0x00000a1c:    9903        ..      LDR      r1,[sp,#0xc]
        0x00000a1e:    f7fffd4e    ..N.    BL       __aeabi_idiv ; 0x4be
        0x00000a22:    0041        A.      LSLS     r1,r0,#1
        0x00000a24:    1840        @.      ADDS     r0,r0,r1
        0x00000a26:    19c0        ..      ADDS     r0,r0,r7
        0x00000a28:    b2c0        ..      UXTB     r0,r0
        0x00000a2a:    9001        ..      STR      r0,[sp,#4]
        0x00000a2c:    4628        (F      MOV      r0,r5
        0x00000a2e:    9903        ..      LDR      r1,[sp,#0xc]
        0x00000a30:    f7fffd45    ..E.    BL       __aeabi_idiv ; 0x4be
        0x00000a34:    2802        .(      CMP      r0,#2
        0x00000a36:    db00        ..      BLT      0xa3a ; LC_monotonic + 74
        0x00000a38:    bf00        ..      NOP      
        0x00000a3a:    4628        (F      MOV      r0,r5
        0x00000a3c:    9903        ..      LDR      r1,[sp,#0xc]
        0x00000a3e:    f7fffd3e    ..>.    BL       __aeabi_idiv ; 0x4be
        0x00000a42:    1988        ..      ADDS     r0,r1,r6
        0x00000a44:    b2c4        ..      UXTB     r4,r0
        0x00000a46:    2c0f        .,      CMP      r4,#0xf
        0x00000a48:    dd00        ..      BLE      0xa4c ; LC_monotonic + 92
        0x00000a4a:    1c64        d.      ADDS     r4,r4,#1
        0x00000a4c:    4622        "F      MOV      r2,r4
        0x00000a4e:    9901        ..      LDR      r1,[sp,#4]
        0x00000a50:    9800        ..      LDR      r0,[sp,#0]
        0x00000a52:    f7ffff95    ....    BL       LC_FREQCHANGE ; 0x980
        0x00000a56:    b005        ..      ADD      sp,sp,#0x14
        0x00000a58:    bdf0        ..      POP      {r4-r7,pc}
        0x00000a5a:    0000        ..      MOVS     r0,r0
    i._sys_exit
    _sys_exit
        0x00000a5c:    a002        ..      ADR      r0,{pc}+0xc ; 0xa68
        0x00000a5e:    f7fffc1d    ....    BL       __2printf ; 0x29c
        0x00000a62:    bf00        ..      NOP      
        0x00000a64:    e7fe        ..      B        0xa64 ; _sys_exit + 8
    $d
        0x00000a66:    0000        ..      DCW    0
        0x00000a68:    5345540a    .TES    DCD    1397052426
        0x00000a6c:    4f442054    T DO    DCD    1329864788
        0x00000a70:    000a454e    NE..    DCD    673102
    $t
    i.adc_isr
    adc_isr
        0x00000a74:    b510        ..      PUSH     {r4,lr}
        0x00000a76:    a002        ..      ADR      r0,{pc}+0xa ; 0xa80
        0x00000a78:    f7fffc10    ....    BL       __2printf ; 0x29c
        0x00000a7c:    bd10        ..      POP      {r4,pc}
    $d
        0x00000a7e:    0000        ..      DCW    0
        0x00000a80:    20636461    adc     DCD    543384673
        0x00000a84:    65746e69    inte    DCD    1702129257
        0x00000a88:    70757272    rrup    DCD    1886745202
        0x00000a8c:    72742074    t tr    DCD    1920213108
        0x00000a90:    65676769    igge    DCD    1701275497
        0x00000a94:    0d646572    red.    DCD    224683378
        0x00000a98:    0000000a    ....    DCD    10
    $t
    i.analog_scan_chain_load
    analog_scan_chain_load
        0x00000a9c:    2028        (       MOVS     r0,#0x28
        0x00000a9e:    4902        .I      LDR      r1,[pc,#8] ; [0xaa8] = 0x52580000
        0x00000aa0:    6008        .`      STR      r0,[r1,#0]
        0x00000aa2:    2020                MOVS     r0,#0x20
        0x00000aa4:    6008        .`      STR      r0,[r1,#0]
        0x00000aa6:    4770        pG      BX       lr
    $d
        0x00000aa8:    52580000    ..XR    DCD    1381498880
    $t
    i.analog_scan_chain_write
    analog_scan_chain_write
        0x00000aac:    b510        ..      PUSH     {r4,lr}
        0x00000aae:    2100        .!      MOVS     r1,#0
        0x00000ab0:    2200        ."      MOVS     r2,#0
        0x00000ab2:    2125        %!      MOVS     r1,#0x25
        0x00000ab4:    e026        &.      B        0xb04 ; analog_scan_chain_write + 88
        0x00000ab6:    2200        ."      MOVS     r2,#0
        0x00000ab8:    e021        !.      B        0xafe ; analog_scan_chain_write + 82
        0x00000aba:    008b        ..      LSLS     r3,r1,#2
        0x00000abc:    4c13        .L      LDR      r4,[pc,#76] ; [0xb0c] = 0x20000428
        0x00000abe:    58e3        .X      LDR      r3,[r4,r3]
        0x00000ac0:    2401        .$      MOVS     r4,#1
        0x00000ac2:    4094        .@      LSLS     r4,r4,r2
        0x00000ac4:    4023        #@      ANDS     r3,r3,r4
        0x00000ac6:    2b00        .+      CMP      r3,#0
        0x00000ac8:    d101        ..      BNE      0xace ; analog_scan_chain_write + 34
        0x00000aca:    2021        !       MOVS     r0,#0x21
        0x00000acc:    e000        ..      B        0xad0 ; analog_scan_chain_write + 36
        0x00000ace:    2020                MOVS     r0,#0x20
        0x00000ad0:    4b0f        .K      LDR      r3,[pc,#60] ; [0xb10] = 0x52580000
        0x00000ad2:    6018        .`      STR      r0,[r3,#0]
        0x00000ad4:    2402        .$      MOVS     r4,#2
        0x00000ad6:    4603        .F      MOV      r3,r0
        0x00000ad8:    43a3        .C      BICS     r3,r3,r4
        0x00000ada:    4618        .F      MOV      r0,r3
        0x00000adc:    4b0c        .K      LDR      r3,[pc,#48] ; [0xb10] = 0x52580000
        0x00000ade:    6018        .`      STR      r0,[r3,#0]
        0x00000ae0:    2304        .#      MOVS     r3,#4
        0x00000ae2:    4318        .C      ORRS     r0,r0,r3
        0x00000ae4:    4b0a        .K      LDR      r3,[pc,#40] ; [0xb10] = 0x52580000
        0x00000ae6:    6018        .`      STR      r0,[r3,#0]
        0x00000ae8:    2404        .$      MOVS     r4,#4
        0x00000aea:    4603        .F      MOV      r3,r0
        0x00000aec:    43a3        .C      BICS     r3,r3,r4
        0x00000aee:    4618        .F      MOV      r0,r3
        0x00000af0:    4b07        .K      LDR      r3,[pc,#28] ; [0xb10] = 0x52580000
        0x00000af2:    6018        .`      STR      r0,[r3,#0]
        0x00000af4:    2302        .#      MOVS     r3,#2
        0x00000af6:    4318        .C      ORRS     r0,r0,r3
        0x00000af8:    4b05        .K      LDR      r3,[pc,#20] ; [0xb10] = 0x52580000
        0x00000afa:    6018        .`      STR      r0,[r3,#0]
        0x00000afc:    1c52        R.      ADDS     r2,r2,#1
        0x00000afe:    2a20         *      CMP      r2,#0x20
        0x00000b00:    dbdb        ..      BLT      0xaba ; analog_scan_chain_write + 14
        0x00000b02:    1e49        I.      SUBS     r1,r1,#1
        0x00000b04:    2900        .)      CMP      r1,#0
        0x00000b06:    dad6        ..      BGE      0xab6 ; analog_scan_chain_write + 10
        0x00000b08:    bd10        ..      POP      {r4,pc}
    $d
        0x00000b0a:    0000        ..      DCW    0
        0x00000b0c:    20000428    (..     DCD    536871976
        0x00000b10:    52580000    ..XR    DCD    1381498880
    $t
    i.board_init
    board_init
        0x00000b14:    b51c        ..      PUSH     {r2-r4,lr}
        0x00000b16:    a021        !.      ADR      r0,{pc}+0x86 ; 0xb9c
        0x00000b18:    f7fffbc0    ....    BL       __2printf ; 0x29c
        0x00000b1c:    f000fa6a    ..j.    BL       initialize_mote ; 0xff4
        0x00000b20:    a022        ".      ADR      r0,{pc}+0x8c ; 0xbac
        0x00000b22:    f7fffbbb    ....    BL       __2printf ; 0x29c
        0x00000b26:    a027        '.      ADR      r0,{pc}+0x9e ; 0xbc4
        0x00000b28:    f7fffbb8    ....    BL       __2printf ; 0x29c
        0x00000b2c:    482d        -H      LDR      r0,[pc,#180] ; [0xbe4] = 0xffc0
        0x00000b2e:    6b81        .k      LDR      r1,[r0,#0x38]
        0x00000b30:    2000        .       MOVS     r0,#0
        0x00000b32:    f000f901    ....    BL       crc32c ; 0xd38
        0x00000b36:    4604        .F      MOV      r4,r0
        0x00000b38:    482a        *H      LDR      r0,[pc,#168] ; [0xbe4] = 0xffc0
        0x00000b3a:    6bc0        .k      LDR      r0,[r0,#0x3c]
        0x00000b3c:    42a0        .B      CMP      r0,r4
        0x00000b3e:    d103        ..      BNE      0xb48 ; board_init + 52
        0x00000b40:    a029        ).      ADR      r0,{pc}+0xa8 ; 0xbe8
        0x00000b42:    f7fffbab    ....    BL       __2printf ; 0x29c
        0x00000b46:    e004        ..      B        0xb52 ; board_init + 62
        0x00000b48:    a02a        *.      ADR      r0,{pc}+0xac ; 0xbf4
        0x00000b4a:    f7fffba7    ....    BL       __2printf ; 0x29c
        0x00000b4e:    bf00        ..      NOP      
        0x00000b50:    e7fe        ..      B        0xb50 ; board_init + 60
        0x00000b52:    20ff        .       MOVS     r0,#0xff
        0x00000b54:    4937        7I      LDR      r1,[pc,#220] ; [0xc34] = 0xe000e400
        0x00000b56:    6008        .`      STR      r0,[r1,#0]
        0x00000b58:    200f        .       MOVS     r0,#0xf
        0x00000b5a:    6188        .a      STR      r0,[r1,#0x18]
        0x00000b5c:    2000        .       MOVS     r0,#0
        0x00000b5e:    61c8        .a      STR      r0,[r1,#0x1c]
        0x00000b60:    f000f90e    ....    BL       debugpins_init ; 0xd80
        0x00000b64:    f000faea    ....    BL       leds_init ; 0x113c
        0x00000b68:    f001fc54    ..T.    BL       uart_init ; 0x2414
        0x00000b6c:    f001f95c    ..\.    BL       sctimer_init ; 0x1e28
        0x00000b70:    f000fdde    ....    BL       radio_init ; 0x1730
        0x00000b74:    4668        hF      MOV      r0,sp
        0x00000b76:    f000f94f    ..O.    BL       eui64_get ; 0xe18
        0x00000b7a:    a02f        /.      ADR      r0,{pc}+0xbe ; 0xc38
        0x00000b7c:    f7fffb8e    ....    BL       __2printf ; 0x29c
        0x00000b80:    f000ff8c    ....    BL       radio_rxEnable ; 0x1a9c
        0x00000b84:    f000fb46    ..F.    BL       optical_enable ; 0x1214
        0x00000b88:    bf00        ..      NOP      
        0x00000b8a:    f000fb4b    ..K.    BL       optical_getCalibrationFinshed ; 0x1224
        0x00000b8e:    2800        .(      CMP      r0,#0
        0x00000b90:    d0fb        ..      BEQ      0xb8a ; board_init + 118
        0x00000b92:    a031        1.      ADR      r0,{pc}+0xc6 ; 0xc58
        0x00000b94:    f7fffb82    ....    BL       __2printf ; 0x29c
        0x00000b98:    bd1c        ..      POP      {r2-r4,pc}
    $d
        0x00000b9a:    0000        ..      DCW    0
        0x00000b9c:    74696e49    Init    DCD    1953066569
        0x00000ba0:    696c6169    iali    DCD    1768710505
        0x00000ba4:    676e697a    zing    DCD    1735289210
        0x00000ba8:    002e2e2e    ....    DCD    3026478
        0x00000bac:    2d2d0a0d    ..--    DCD    757926413
        0x00000bb0:    2d2d2d2d    ----    DCD    757935405
        0x00000bb4:    2d2d2d2d    ----    DCD    757935405
        0x00000bb8:    2d2d2d2d    ----    DCD    757935405
        0x00000bbc:    2d2d2d2d    ----    DCD    757935405
        0x00000bc0:    000a0d2d    -...    DCD    658733
        0x00000bc4:    696c6156    Vali    DCD    1768710486
        0x00000bc8:    69746164    dati    DCD    1769234788
        0x00000bcc:    7020676e    ng p    DCD    1881171822
        0x00000bd0:    72676f72    rogr    DCD    1919381362
        0x00000bd4:    69206d61    am i    DCD    1763732833
        0x00000bd8:    6765746e    nteg    DCD    1734702190
        0x00000bdc:    79746972    rity    DCD    2037672306
        0x00000be0:    002e2e2e    ....    DCD    3026478
        0x00000be4:    0000ffc0    ....    DCD    65472
        0x00000be8:    20435243    CRC     DCD    541282883
        0x00000bec:    0a0d4b4f    OK..    DCD    168643407
        0x00000bf0:    00000000    ....    DCD    0
        0x00000bf4:    72500a0d    ..Pr    DCD    1917848077
        0x00000bf8:    6172676f    ogra    DCD    1634887535
        0x00000bfc:    6e696d6d    mmin    DCD    1852403053
        0x00000c00:    72452067    g Er    DCD    1917132903
        0x00000c04:    20726f72    ror     DCD    544370546
        0x00000c08:    5243202d    - CR    DCD    1380130861
        0x00000c0c:    4f442043    C DO    DCD    1329864771
        0x00000c10:    4e205345    ES N    DCD    1310741317
        0x00000c14:    4d20544f    OT M    DCD    1293964367
        0x00000c18:    48435441    ATCH    DCD    1212372033
        0x00000c1c:    48202d20     - H    DCD    1210068256
        0x00000c20:    69746c61    alti    DCD    1769237601
        0x00000c24:    4520676e    ng E    DCD    1159751534
        0x00000c28:    75636578    xecu    DCD    1969448312
        0x00000c2c:    6e6f6974    tion    DCD    1852795252
        0x00000c30:    00000a0d    ....    DCD    2573
        0x00000c34:    e000e400    ....    DCD    3758154752
        0x00000c38:    696c6143    Cali    DCD    1768710467
        0x00000c3c:    74617262    brat    DCD    1952543330
        0x00000c40:    20676e69    ing     DCD    543649385
        0x00000c44:    71657266    freq    DCD    1902473830
        0x00000c48:    636e6575    uenc    DCD    1668179317
        0x00000c4c:    2e736569    ies.    DCD    779314537
        0x00000c50:    0a0d2e2e    ....    DCD    168635950
        0x00000c54:    00000000    ....    DCD    0
        0x00000c58:    206c6143    Cal     DCD    543973699
        0x00000c5c:    706d6f63    comp    DCD    1886220131
        0x00000c60:    6574656c    lete    DCD    1702126956
        0x00000c64:    00000a0d    ....    DCD    2573
    $t
    i.board_sleep
    board_sleep
        0x00000c68:    2000        .       MOVS     r0,#0
        0x00000c6a:    e001        ..      B        0xc70 ; board_sleep + 8
        0x00000c6c:    1c41        A.      ADDS     r1,r0,#1
        0x00000c6e:    b288        ..      UXTH     r0,r1
        0x00000c70:    280f        .(      CMP      r0,#0xf
        0x00000c72:    dbfb        ..      BLT      0xc6c ; board_sleep + 4
        0x00000c74:    4770        pG      BX       lr
        0x00000c76:    0000        ..      MOVS     r0,r0
    i.cb_endFrame
    cb_endFrame
        0x00000c78:    b57c        |.      PUSH     {r2-r6,lr}
        0x00000c7a:    4606        .F      MOV      r6,r0
        0x00000c7c:    481d        .H      LDR      r0,[pc,#116] ; [0xcf4] = 0x20000000
        0x00000c7e:    7880        .x      LDRB     r0,[r0,#2]
        0x00000c80:    1c40        @.      ADDS     r0,r0,#1
        0x00000c82:    491c        .I      LDR      r1,[pc,#112] ; [0xcf4] = 0x20000000
        0x00000c84:    7088        .p      STRB     r0,[r1,#2]
        0x00000c86:    210b        .!      MOVS     r1,#0xb
        0x00000c88:    481b        .H      LDR      r0,[pc,#108] ; [0xcf8] = 0x20000095
        0x00000c8a:    f7fffc0a    ....    BL       __aeabi_memclr ; 0x4a2
        0x00000c8e:    481a        .H      LDR      r0,[pc,#104] ; [0xcf8] = 0x20000095
        0x00000c90:    300f        .0      ADDS     r0,r0,#0xf
        0x00000c92:    1e41        A.      SUBS     r1,r0,#1
        0x00000c94:    1e83        ..      SUBS     r3,r0,#2
        0x00000c96:    220b        ."      MOVS     r2,#0xb
        0x00000c98:    9100        ..      STR      r1,[sp,#0]
        0x00000c9a:    9001        ..      STR      r0,[sp,#4]
        0x00000c9c:    1f01        ..      SUBS     r1,r0,#4
        0x00000c9e:    380f        .8      SUBS     r0,r0,#0xf
        0x00000ca0:    f000fd22    ..".    BL       radio_getReceivedFrame ; 0x16e8
        0x00000ca4:    2501        .%      MOVS     r5,#1
        0x00000ca6:    4814        .H      LDR      r0,[pc,#80] ; [0xcf8] = 0x20000095
        0x00000ca8:    1e40        @.      SUBS     r0,r0,#1
        0x00000caa:    7b00        .{      LDRB     r0,[r0,#0xc]
        0x00000cac:    280b        .(      CMP      r0,#0xb
        0x00000cae:    dd01        ..      BLE      0xcb4 ; cb_endFrame + 60
        0x00000cb0:    2500        .%      MOVS     r5,#0
        0x00000cb2:    e00c        ..      B        0xcce ; cb_endFrame + 86
        0x00000cb4:    2401        .$      MOVS     r4,#1
        0x00000cb6:    e007        ..      B        0xcc8 ; cb_endFrame + 80
        0x00000cb8:    480f        .H      LDR      r0,[pc,#60] ; [0xcf8] = 0x20000095
        0x00000cba:    5d00        .]      LDRB     r0,[r0,r4]
        0x00000cbc:    42a0        .B      CMP      r0,r4
        0x00000cbe:    d001        ..      BEQ      0xcc4 ; cb_endFrame + 76
        0x00000cc0:    2500        .%      MOVS     r5,#0
        0x00000cc2:    e003        ..      B        0xccc ; cb_endFrame + 84
        0x00000cc4:    1c60        `.      ADDS     r0,r4,#1
        0x00000cc6:    b2c4        ..      UXTB     r4,r0
        0x00000cc8:    2c0a        .,      CMP      r4,#0xa
        0x00000cca:    dbf5        ..      BLT      0xcb8 ; cb_endFrame + 64
        0x00000ccc:    bf00        ..      NOP      
        0x00000cce:    480a        .H      LDR      r0,[pc,#40] ; [0xcf8] = 0x20000095
        0x00000cd0:    1e40        @.      SUBS     r0,r0,#1
        0x00000cd2:    7840        @x      LDRB     r0,[r0,#1]
        0x00000cd4:    4908        .I      LDR      r1,[pc,#32] ; [0xcf8] = 0x20000095
        0x00000cd6:    1e49        I.      SUBS     r1,r1,#1
        0x00000cd8:    7348        Hs      STRB     r0,[r1,#0xd]
        0x00000cda:    2d00        .-      CMP      r5,#0
        0x00000cdc:    d003        ..      BEQ      0xce6 ; cb_endFrame + 110
        0x00000cde:    2001        .       MOVS     r0,#1
        0x00000ce0:    7008        .p      STRB     r0,[r1,#0]
        0x00000ce2:    f000fa0d    ....    BL       leds_debug_toggle ; 0x1100
        0x00000ce6:    f000fed9    ....    BL       radio_rxEnable ; 0x1a9c
        0x00000cea:    f000fef7    ....    BL       radio_rxNow ; 0x1adc
        0x00000cee:    f000fa39    ..9.    BL       leds_sync_off ; 0x1164
        0x00000cf2:    bd7c        |.      POP      {r2-r6,pc}
    $d
        0x00000cf4:    20000000    ...     DCD    536870912
        0x00000cf8:    20000095    ...     DCD    536871061
    $t
    i.cb_startFrame
    cb_startFrame
        0x00000cfc:    b510        ..      PUSH     {r4,lr}
        0x00000cfe:    4604        .F      MOV      r4,r0
        0x00000d00:    f000fa3a    ..:.    BL       leds_sync_on ; 0x1178
        0x00000d04:    4802        .H      LDR      r0,[pc,#8] ; [0xd10] = 0x20000000
        0x00000d06:    7840        @x      LDRB     r0,[r0,#1]
        0x00000d08:    1c40        @.      ADDS     r0,r0,#1
        0x00000d0a:    4901        .I      LDR      r1,[pc,#4] ; [0xd10] = 0x20000000
        0x00000d0c:    7048        Hp      STRB     r0,[r1,#1]
        0x00000d0e:    bd10        ..      POP      {r4,pc}
    $d
        0x00000d10:    20000000    ...     DCD    536870912
    $t
    i.clear_asc_bit
    clear_asc_bit
        0x00000d14:    b510        ..      PUSH     {r4,lr}
        0x00000d16:    0941        A.      LSRS     r1,r0,#5
        0x00000d18:    008a        ..      LSLS     r2,r1,#2
        0x00000d1a:    4b06        .K      LDR      r3,[pc,#24] ; [0xd34] = 0x20000428
        0x00000d1c:    589a        .X      LDR      r2,[r3,r2]
        0x00000d1e:    014b        K.      LSLS     r3,r1,#5
        0x00000d20:    1ac4        ..      SUBS     r4,r0,r3
        0x00000d22:    2301        .#      MOVS     r3,#1
        0x00000d24:    07db        ..      LSLS     r3,r3,#31
        0x00000d26:    40e3        .@      LSRS     r3,r3,r4
        0x00000d28:    439a        .C      BICS     r2,r2,r3
        0x00000d2a:    008b        ..      LSLS     r3,r1,#2
        0x00000d2c:    4c01        .L      LDR      r4,[pc,#4] ; [0xd34] = 0x20000428
        0x00000d2e:    50e2        .P      STR      r2,[r4,r3]
        0x00000d30:    bd10        ..      POP      {r4,pc}
    $d
        0x00000d32:    0000        ..      DCW    0
        0x00000d34:    20000428    (..     DCD    536871976
    $t
    i.crc32c
    crc32c
        0x00000d38:    b5f3        ..      PUSH     {r0,r1,r4-r7,lr}
        0x00000d3a:    2500        .%      MOVS     r5,#0
        0x00000d3c:    1e6c        l.      SUBS     r4,r5,#1
        0x00000d3e:    e016        ..      B        0xd6e ; crc32c + 54
        0x00000d40:    9800        ..      LDR      r0,[sp,#0]
        0x00000d42:    5d46        F]      LDRB     r6,[r0,r5]
        0x00000d44:    4630        0F      MOV      r0,r6
        0x00000d46:    f000ffc5    ....    BL       reverse ; 0x1cd4
        0x00000d4a:    4606        .F      MOV      r6,r0
        0x00000d4c:    2700        .'      MOVS     r7,#0
        0x00000d4e:    e00b        ..      B        0xd68 ; crc32c + 48
        0x00000d50:    4620         F      MOV      r0,r4
        0x00000d52:    4070        p@      EORS     r0,r0,r6
        0x00000d54:    2800        .(      CMP      r0,#0
        0x00000d56:    da04        ..      BGE      0xd62 ; crc32c + 42
        0x00000d58:    0060        `.      LSLS     r0,r4,#1
        0x00000d5a:    4908        .I      LDR      r1,[pc,#32] ; [0xd7c] = 0x4c11db7
        0x00000d5c:    4048        H@      EORS     r0,r0,r1
        0x00000d5e:    4604        .F      MOV      r4,r0
        0x00000d60:    e000        ..      B        0xd64 ; crc32c + 44
        0x00000d62:    0064        d.      LSLS     r4,r4,#1
        0x00000d64:    0076        v.      LSLS     r6,r6,#1
        0x00000d66:    1c7f        ..      ADDS     r7,r7,#1
        0x00000d68:    2f07        ./      CMP      r7,#7
        0x00000d6a:    ddf1        ..      BLE      0xd50 ; crc32c + 24
        0x00000d6c:    1c6d        m.      ADDS     r5,r5,#1
        0x00000d6e:    9801        ..      LDR      r0,[sp,#4]
        0x00000d70:    4285        .B      CMP      r5,r0
        0x00000d72:    d3e5        ..      BCC      0xd40 ; crc32c + 8
        0x00000d74:    43e0        .C      MVNS     r0,r4
        0x00000d76:    f000ffad    ....    BL       reverse ; 0x1cd4
        0x00000d7a:    bdfc        ..      POP      {r2-r7,pc}
    $d
        0x00000d7c:    04c11db7    ....    DCD    79764919
    $t
    i.debugpins_init
    debugpins_init
        0x00000d80:    4803        .H      LDR      r0,[pc,#12] ; [0xd90] = 0x53040000
        0x00000d82:    6800        .h      LDR      r0,[r0,#0]
        0x00000d84:    0b00        ..      LSRS     r0,r0,#12
        0x00000d86:    0300        ..      LSLS     r0,r0,#12
        0x00000d88:    4901        .I      LDR      r1,[pc,#4] ; [0xd90] = 0x53040000
        0x00000d8a:    6008        .`      STR      r0,[r1,#0]
        0x00000d8c:    4770        pG      BX       lr
    $d
        0x00000d8e:    0000        ..      DCW    0
        0x00000d90:    53040000    ...S    DCD    1392771072
    $t
    i.debugpins_isr_clr
    debugpins_isr_clr
        0x00000d94:    4803        .H      LDR      r0,[pc,#12] ; [0xda4] = 0x53040000
        0x00000d96:    6800        .h      LDR      r0,[r0,#0]
        0x00000d98:    2104        .!      MOVS     r1,#4
        0x00000d9a:    4388        .C      BICS     r0,r0,r1
        0x00000d9c:    4901        .I      LDR      r1,[pc,#4] ; [0xda4] = 0x53040000
        0x00000d9e:    6008        .`      STR      r0,[r1,#0]
        0x00000da0:    4770        pG      BX       lr
    $d
        0x00000da2:    0000        ..      DCW    0
        0x00000da4:    53040000    ...S    DCD    1392771072
    $t
    i.debugpins_isr_set
    debugpins_isr_set
        0x00000da8:    4803        .H      LDR      r0,[pc,#12] ; [0xdb8] = 0x53040000
        0x00000daa:    6800        .h      LDR      r0,[r0,#0]
        0x00000dac:    2104        .!      MOVS     r1,#4
        0x00000dae:    4308        .C      ORRS     r0,r0,r1
        0x00000db0:    4901        .I      LDR      r1,[pc,#4] ; [0xdb8] = 0x53040000
        0x00000db2:    6008        .`      STR      r0,[r1,#0]
        0x00000db4:    4770        pG      BX       lr
    $d
        0x00000db6:    0000        ..      DCW    0
        0x00000db8:    53040000    ...S    DCD    1392771072
    $t
    i.debugpins_radio_set
    debugpins_radio_set
        0x00000dbc:    4803        .H      LDR      r0,[pc,#12] ; [0xdcc] = 0x53040000
        0x00000dbe:    6800        .h      LDR      r0,[r0,#0]
        0x00000dc0:    2140        @!      MOVS     r1,#0x40
        0x00000dc2:    4308        .C      ORRS     r0,r0,r1
        0x00000dc4:    4901        .I      LDR      r1,[pc,#4] ; [0xdcc] = 0x53040000
        0x00000dc6:    6008        .`      STR      r0,[r1,#0]
        0x00000dc8:    4770        pG      BX       lr
    $d
        0x00000dca:    0000        ..      DCW    0
        0x00000dcc:    53040000    ...S    DCD    1392771072
    $t
    i.divProgram
    divProgram
        0x00000dd0:    b570        p.      PUSH     {r4-r6,lr}
        0x00000dd2:    4603        .F      MOV      r3,r0
        0x00000dd4:    2400        .$      MOVS     r4,#0
        0x00000dd6:    2000        .       MOVS     r0,#0
        0x00000dd8:    2503        .%      MOVS     r5,#3
        0x00000dda:    02ad        ..      LSLS     r5,r5,#10
        0x00000ddc:    401d        .@      ANDS     r5,r5,r3
        0x00000dde:    012c        ,.      LSLS     r4,r5,#4
        0x00000de0:    250f        .%      MOVS     r5,#0xf
        0x00000de2:    032d        -.      LSLS     r5,r5,#12
        0x00000de4:    401d        .@      ANDS     r5,r5,r3
        0x00000de6:    0b2d        -.      LSRS     r5,r5,#12
        0x00000de8:    4328        (C      ORRS     r0,r0,r5
        0x00000dea:    253f        ?%      MOVS     r5,#0x3f
        0x00000dec:    012d        -.      LSLS     r5,r5,#4
        0x00000dee:    401d        .@      ANDS     r5,r5,r3
        0x00000df0:    4328        (C      ORRS     r0,r0,r5
        0x00000df2:    0295        ..      LSLS     r5,r2,#10
        0x00000df4:    4328        (C      ORRS     r0,r0,r5
        0x00000df6:    02cd        ..      LSLS     r5,r1,#11
        0x00000df8:    4328        (C      ORRS     r0,r0,r5
        0x00000dfa:    071d        ..      LSLS     r5,r3,#28
        0x00000dfc:    0c2d        -.      LSRS     r5,r5,#16
        0x00000dfe:    4328        (C      ORRS     r0,r0,r5
        0x00000e00:    43e5        .C      MVNS     r5,r4
        0x00000e02:    4e03        .N      LDR      r6,[pc,#12] ; [0xe10] = 0x52140000
        0x00000e04:    6035        5`      STR      r5,[r6,#0]
        0x00000e06:    43c5        .C      MVNS     r5,r0
        0x00000e08:    4e02        .N      LDR      r6,[pc,#8] ; [0xe14] = 0x52180000
        0x00000e0a:    6035        5`      STR      r5,[r6,#0]
        0x00000e0c:    bd70        p.      POP      {r4-r6,pc}
    $d
        0x00000e0e:    0000        ..      DCW    0
        0x00000e10:    52140000    ...R    DCD    1377042432
        0x00000e14:    52180000    ...R    DCD    1377304576
    $t
    i.eui64_get
    eui64_get
        0x00000e18:    b510        ..      PUSH     {r4,lr}
        0x00000e1a:    4604        .F      MOV      r4,r0
        0x00000e1c:    2208        ."      MOVS     r2,#8
        0x00000e1e:    4902        .I      LDR      r1,[pc,#8] ; [0xe28] = 0x245f
        0x00000e20:    4620         F      MOV      r0,r4
        0x00000e22:    f7fffae1    ....    BL       __aeabi_memcpy ; 0x3e8
        0x00000e26:    bd10        ..      POP      {r4,pc}
    $d
        0x00000e28:    0000245f    _$..    DCD    9311
    $t
    i.ext_gpio10_activelow_isr
    ext_gpio10_activelow_isr
        0x00000e2c:    b510        ..      PUSH     {r4,lr}
        0x00000e2e:    a002        ..      ADR      r0,{pc}+0xa ; 0xe38
        0x00000e30:    f7fffa34    ..4.    BL       __2printf ; 0x29c
        0x00000e34:    bd10        ..      POP      {r4,pc}
    $d
        0x00000e36:    0000        ..      DCW    0
        0x00000e38:    65747845    Exte    DCD    1702131781
        0x00000e3c:    6c616e72    rnal    DCD    1818324594
        0x00000e40:    746e4920     Int    DCD    1953384736
        0x00000e44:    75727265    erru    DCD    1970434661
        0x00000e48:    47207470    pt G    DCD    1193309296
        0x00000e4c:    314f4950    PIO1    DCD    827279696
        0x00000e50:    72742030    0 tr    DCD    1920213040
        0x00000e54:    65676769    igge    DCD    1701275497
        0x00000e58:    0d646572    red.    DCD    224683378
        0x00000e5c:    0000000a    ....    DCD    10
    $t
    i.ext_gpio3_activehigh_debounced_isr
    ext_gpio3_activehigh_debounced_isr
        0x00000e60:    b510        ..      PUSH     {r4,lr}
        0x00000e62:    a002        ..      ADR      r0,{pc}+0xa ; 0xe6c
        0x00000e64:    f7fffa1a    ....    BL       __2printf ; 0x29c
        0x00000e68:    bd10        ..      POP      {r4,pc}
    $d
        0x00000e6a:    0000        ..      DCW    0
        0x00000e6c:    65747845    Exte    DCD    1702131781
        0x00000e70:    6c616e72    rnal    DCD    1818324594
        0x00000e74:    746e4920     Int    DCD    1953384736
        0x00000e78:    75727265    erru    DCD    1970434661
        0x00000e7c:    47207470    pt G    DCD    1193309296
        0x00000e80:    334f4950    PIO3    DCD    860834128
        0x00000e84:    69727420     tri    DCD    1769108512
        0x00000e88:    72656767    gger    DCD    1919248231
        0x00000e8c:    0a0d6465    ed..    DCD    168649829
        0x00000e90:    00000000    ....    DCD    0
    $t
    i.ext_gpio8_activehigh_isr
    ext_gpio8_activehigh_isr
        0x00000e94:    b510        ..      PUSH     {r4,lr}
        0x00000e96:    f000f9dd    ....    BL       optical_sfd_isr ; 0x1254
        0x00000e9a:    bd10        ..      POP      {r4,pc}
    i.ext_gpio9_activelow_isr
    ext_gpio9_activelow_isr
        0x00000e9c:    b510        ..      PUSH     {r4,lr}
        0x00000e9e:    a002        ..      ADR      r0,{pc}+0xa ; 0xea8
        0x00000ea0:    f7fff9fc    ....    BL       __2printf ; 0x29c
        0x00000ea4:    bd10        ..      POP      {r4,pc}
    $d
        0x00000ea6:    0000        ..      DCW    0
        0x00000ea8:    65747845    Exte    DCD    1702131781
        0x00000eac:    6c616e72    rnal    DCD    1818324594
        0x00000eb0:    746e4920     Int    DCD    1953384736
        0x00000eb4:    75727265    erru    DCD    1970434661
        0x00000eb8:    47207470    pt G    DCD    1193309296
        0x00000ebc:    394f4950    PIO9    DCD    961497424
        0x00000ec0:    69727420     tri    DCD    1769108512
        0x00000ec4:    72656767    gger    DCD    1919248231
        0x00000ec8:    0a0d6465    ed..    DCD    168649829
        0x00000ecc:    00000000    ....    DCD    0
    $t
    i.ferror
    ferror
        0x00000ed0:    4601        .F      MOV      r1,r0
        0x00000ed2:    2000        .       MOVS     r0,#0
        0x00000ed4:    4770        pG      BX       lr
    i.flipChar
    flipChar
        0x00000ed6:    21f0        .!      MOVS     r1,#0xf0
        0x00000ed8:    4001        .@      ANDS     r1,r1,r0
        0x00000eda:    1109        ..      ASRS     r1,r1,#4
        0x00000edc:    0702        ..      LSLS     r2,r0,#28
        0x00000ede:    0e12        ..      LSRS     r2,r2,#24
        0x00000ee0:    4311        .C      ORRS     r1,r1,r2
        0x00000ee2:    4608        .F      MOV      r0,r1
        0x00000ee4:    21cc        .!      MOVS     r1,#0xcc
        0x00000ee6:    4001        .@      ANDS     r1,r1,r0
        0x00000ee8:    1089        ..      ASRS     r1,r1,#2
        0x00000eea:    2233        3"      MOVS     r2,#0x33
        0x00000eec:    4002        .@      ANDS     r2,r2,r0
        0x00000eee:    0092        ..      LSLS     r2,r2,#2
        0x00000ef0:    4311        .C      ORRS     r1,r1,r2
        0x00000ef2:    4608        .F      MOV      r0,r1
        0x00000ef4:    21aa        .!      MOVS     r1,#0xaa
        0x00000ef6:    4001        .@      ANDS     r1,r1,r0
        0x00000ef8:    1049        I.      ASRS     r1,r1,#1
        0x00000efa:    2255        U"      MOVS     r2,#0x55
        0x00000efc:    4002        .@      ANDS     r2,r2,r0
        0x00000efe:    0052        R.      LSLS     r2,r2,#1
        0x00000f00:    4311        .C      ORRS     r1,r1,r2
        0x00000f02:    4608        .F      MOV      r0,r1
        0x00000f04:    4770        pG      BX       lr
    i.flip_lsb8
    flip_lsb8
        0x00000f06:    4601        .F      MOV      r1,r0
        0x00000f08:    2000        .       MOVS     r0,#0
        0x00000f0a:    07ca        ..      LSLS     r2,r1,#31
        0x00000f0c:    0e12        ..      LSRS     r2,r2,#24
        0x00000f0e:    4310        .C      ORRS     r0,r0,r2
        0x00000f10:    2202        ."      MOVS     r2,#2
        0x00000f12:    400a        .@      ANDS     r2,r2,r1
        0x00000f14:    0152        R.      LSLS     r2,r2,#5
        0x00000f16:    4310        .C      ORRS     r0,r0,r2
        0x00000f18:    2204        ."      MOVS     r2,#4
        0x00000f1a:    400a        .@      ANDS     r2,r2,r1
        0x00000f1c:    00d2        ..      LSLS     r2,r2,#3
        0x00000f1e:    4310        .C      ORRS     r0,r0,r2
        0x00000f20:    2208        ."      MOVS     r2,#8
        0x00000f22:    400a        .@      ANDS     r2,r2,r1
        0x00000f24:    0052        R.      LSLS     r2,r2,#1
        0x00000f26:    4310        .C      ORRS     r0,r0,r2
        0x00000f28:    2210        ."      MOVS     r2,#0x10
        0x00000f2a:    400a        .@      ANDS     r2,r2,r1
        0x00000f2c:    0852        R.      LSRS     r2,r2,#1
        0x00000f2e:    4310        .C      ORRS     r0,r0,r2
        0x00000f30:    2220         "      MOVS     r2,#0x20
        0x00000f32:    400a        .@      ANDS     r2,r2,r1
        0x00000f34:    08d2        ..      LSRS     r2,r2,#3
        0x00000f36:    4310        .C      ORRS     r0,r0,r2
        0x00000f38:    2240        @"      MOVS     r2,#0x40
        0x00000f3a:    400a        .@      ANDS     r2,r2,r1
        0x00000f3c:    0952        R.      LSRS     r2,r2,#5
        0x00000f3e:    4310        .C      ORRS     r0,r0,r2
        0x00000f40:    2280        ."      MOVS     r2,#0x80
        0x00000f42:    400a        .@      ANDS     r2,r2,r1
        0x00000f44:    09d2        ..      LSRS     r2,r2,#7
        0x00000f46:    4310        .C      ORRS     r0,r0,r2
        0x00000f48:    4770        pG      BX       lr
    i.fputc
    fputc
        0x00000f4a:    b510        ..      PUSH     {r4,lr}
        0x00000f4c:    4603        .F      MOV      r3,r0
        0x00000f4e:    460c        .F      MOV      r4,r1
        0x00000f50:    4618        .F      MOV      r0,r3
        0x00000f52:    f001fa67    ..g.    BL       uart_out ; 0x2424
        0x00000f56:    bd10        ..      POP      {r4,pc}
    i.init_ldo_control
    init_ldo_control
        0x00000f58:    b500        ..      PUSH     {lr}
        0x00000f5a:    20ff        .       MOVS     r0,#0xff
        0x00000f5c:    30f6        .0      ADDS     r0,r0,#0xf6
        0x00000f5e:    f7fffed9    ....    BL       clear_asc_bit ; 0xd14
        0x00000f62:    20ff        .       MOVS     r0,#0xff
        0x00000f64:    30f7        .0      ADDS     r0,r0,#0xf7
        0x00000f66:    f7fffed5    ....    BL       clear_asc_bit ; 0xd14
        0x00000f6a:    20ff        .       MOVS     r0,#0xff
        0x00000f6c:    30f8        .0      ADDS     r0,r0,#0xf8
        0x00000f6e:    f7fffed1    ....    BL       clear_asc_bit ; 0xd14
        0x00000f72:    20ff        .       MOVS     r0,#0xff
        0x00000f74:    30f9        .0      ADDS     r0,r0,#0xf9
        0x00000f76:    f7fffecd    ....    BL       clear_asc_bit ; 0xd14
        0x00000f7a:    20ff        .       MOVS     r0,#0xff
        0x00000f7c:    30fa        .0      ADDS     r0,r0,#0xfa
        0x00000f7e:    f001f9e3    ....    BL       set_asc_bit ; 0x2348
        0x00000f82:    20ff        .       MOVS     r0,#0xff
        0x00000f84:    30fb        .0      ADDS     r0,r0,#0xfb
        0x00000f86:    f7fffec5    ....    BL       clear_asc_bit ; 0xd14
        0x00000f8a:    20ff        .       MOVS     r0,#0xff
        0x00000f8c:    30fc        .0      ADDS     r0,r0,#0xfc
        0x00000f8e:    f001f9db    ....    BL       set_asc_bit ; 0x2348
        0x00000f92:    20ff        .       MOVS     r0,#0xff
        0x00000f94:    30fd        .0      ADDS     r0,r0,#0xfd
        0x00000f96:    f7fffebd    ....    BL       clear_asc_bit ; 0xd14
        0x00000f9a:    20ff        .       MOVS     r0,#0xff
        0x00000f9c:    30fe        .0      ADDS     r0,r0,#0xfe
        0x00000f9e:    f001f9d3    ....    BL       set_asc_bit ; 0x2348
        0x00000fa2:    20ff        .       MOVS     r0,#0xff
        0x00000fa4:    30ff        .0      ADDS     r0,r0,#0xff
        0x00000fa6:    f001f9cf    ....    BL       set_asc_bit ; 0x2348
        0x00000faa:    480f        .H      LDR      r0,[pc,#60] ; [0xfe8] = 0x1ff
        0x00000fac:    f001f9cc    ....    BL       set_asc_bit ; 0x2348
        0x00000fb0:    2001        .       MOVS     r0,#1
        0x00000fb2:    0240        @.      LSLS     r0,r0,#9
        0x00000fb4:    f001f9c8    ....    BL       set_asc_bit ; 0x2348
        0x00000fb8:    480b        .H      LDR      r0,[pc,#44] ; [0xfe8] = 0x1ff
        0x00000fba:    1c80        ..      ADDS     r0,r0,#2
        0x00000fbc:    f7fffeaa    ....    BL       clear_asc_bit ; 0xd14
        0x00000fc0:    4809        .H      LDR      r0,[pc,#36] ; [0xfe8] = 0x1ff
        0x00000fc2:    1cc0        ..      ADDS     r0,r0,#3
        0x00000fc4:    f7fffea6    ....    BL       clear_asc_bit ; 0xd14
        0x00000fc8:    4807        .H      LDR      r0,[pc,#28] ; [0xfe8] = 0x1ff
        0x00000fca:    1d00        ..      ADDS     r0,r0,#4
        0x00000fcc:    f001f9bc    ....    BL       set_asc_bit ; 0x2348
        0x00000fd0:    2081        .       MOVS     r0,#0x81
        0x00000fd2:    0080        ..      LSLS     r0,r0,#2
        0x00000fd4:    f001f9b8    ....    BL       set_asc_bit ; 0x2348
        0x00000fd8:    2000        .       MOVS     r0,#0
        0x00000fda:    4904        .I      LDR      r1,[pc,#16] ; [0xfec] = 0x52280000
        0x00000fdc:    6008        .`      STR      r0,[r1,#0]
        0x00000fde:    4804        .H      LDR      r0,[pc,#16] ; [0xff0] = 0x392
        0x00000fe0:    f001f9b2    ....    BL       set_asc_bit ; 0x2348
        0x00000fe4:    bd00        ..      POP      {pc}
    $d
        0x00000fe6:    0000        ..      DCW    0
        0x00000fe8:    000001ff    ....    DCD    511
        0x00000fec:    52280000    ..(R    DCD    1378353152
        0x00000ff0:    00000392    ....    DCD    914
    $t
    i.initialize_mote
    initialize_mote
        0x00000ff4:    b538        8.      PUSH     {r3-r5,lr}
        0x00000ff6:    f000fecb    ....    BL       scm3c_hw_interface_init ; 0x1d90
        0x00000ffa:    f000f919    ....    BL       optical_init ; 0x1230
        0x00000ffe:    f000fb97    ....    BL       radio_init ; 0x1730
        0x00001002:    f000ff11    ....    BL       sctimer_init ; 0x1e28
        0x00001006:    f7ffffa7    ....    BL       init_ldo_control ; 0xf58
        0x0000100a:    2300        .#      MOVS     r3,#0
        0x0000100c:    2201        ."      MOVS     r2,#1
        0x0000100e:    4619        .F      MOV      r1,r3
        0x00001010:    4618        .F      MOV      r0,r3
        0x00001012:    f7fffbbf    ....    BL       GPI_control ; 0x794
        0x00001016:    2306        .#      MOVS     r3,#6
        0x00001018:    2200        ."      MOVS     r2,#0
        0x0000101a:    4619        .F      MOV      r1,r3
        0x0000101c:    4618        .F      MOV      r0,r3
        0x0000101e:    f7fffc37    ..7.    BL       GPO_control ; 0x890
        0x00001022:    20ff        .       MOVS     r0,#0xff
        0x00001024:    3001        .0      ADDS     r0,#1
        0x00001026:    f7fffc11    ....    BL       GPI_enables ; 0x84c
        0x0000102a:    4831        1H      LDR      r0,[pc,#196] ; [0x10f0] = 0xffff
        0x0000102c:    f7fffc86    ....    BL       GPO_enables ; 0x93c
        0x00001030:    4830        0H      LDR      r0,[pc,#192] ; [0x10f4] = 0x47b
        0x00001032:    f001f989    ....    BL       set_asc_bit ; 0x2348
        0x00001036:    4a30        0J      LDR      r2,[pc,#192] ; [0x10f8] = 0x200004a8
        0x00001038:    6ad1        .j      LDR      r1,[r2,#0x2c]
        0x0000103a:    6b10        .k      LDR      r0,[r2,#0x30]
        0x0000103c:    f001f996    ....    BL       set_sys_clk_secondary_freq ; 0x236c
        0x00001040:    482c        ,H      LDR      r0,[pc,#176] ; [0x10f4] = 0x47b
        0x00001042:    1d00        ..      ADDS     r0,r0,#4
        0x00001044:    f001f980    ....    BL       set_asc_bit ; 0x2348
        0x00001048:    482c        ,H      LDR      r0,[pc,#176] ; [0x10fc] = 0x229
        0x0000104a:    f001f97d    ..}.    BL       set_asc_bit ; 0x2348
        0x0000104e:    2031        1       MOVS     r0,#0x31
        0x00001050:    f001f97a    ..z.    BL       set_asc_bit ; 0x2348
        0x00001054:    2030        0       MOVS     r0,#0x30
        0x00001056:    f001f977    ..w.    BL       set_asc_bit ; 0x2348
        0x0000105a:    202f        /       MOVS     r0,#0x2f
        0x0000105c:    f7fffe5a    ..Z.    BL       clear_asc_bit ; 0xd14
        0x00001060:    202e        .       MOVS     r0,#0x2e
        0x00001062:    f001f971    ..q.    BL       set_asc_bit ; 0x2348
        0x00001066:    202d        -       MOVS     r0,#0x2d
        0x00001068:    f7fffe54    ..T.    BL       clear_asc_bit ; 0xd14
        0x0000106c:    202c        ,       MOVS     r0,#0x2c
        0x0000106e:    f001f96b    ..k.    BL       set_asc_bit ; 0x2348
        0x00001072:    202b        +       MOVS     r0,#0x2b
        0x00001074:    f001f968    ..h.    BL       set_asc_bit ; 0x2348
        0x00001078:    202a        *       MOVS     r0,#0x2a
        0x0000107a:    f001f965    ..e.    BL       set_asc_bit ; 0x2348
        0x0000107e:    481d        .H      LDR      r0,[pc,#116] ; [0x10f4] = 0x47b
        0x00001080:    3009        .0      ADDS     r0,r0,#9
        0x00001082:    f001f961    ..a.    BL       set_asc_bit ; 0x2348
        0x00001086:    481d        .H      LDR      r0,[pc,#116] ; [0x10fc] = 0x229
        0x00001088:    3046        F0      ADDS     r0,r0,#0x46
        0x0000108a:    f001f95d    ..].    BL       set_asc_bit ; 0x2348
        0x0000108e:    2029        )       MOVS     r0,#0x29
        0x00001090:    f001f95a    ..Z.    BL       set_asc_bit ; 0x2348
        0x00001094:    2402        .$      MOVS     r4,#2
        0x00001096:    e003        ..      B        0x10a0 ; initialize_mote + 172
        0x00001098:    4620         F      MOV      r0,r4
        0x0000109a:    f001f955    ..U.    BL       set_asc_bit ; 0x2348
        0x0000109e:    1c64        d.      ADDS     r4,r4,#1
        0x000010a0:    2c09        .,      CMP      r4,#9
        0x000010a2:    dbf9        ..      BLT      0x1098 ; initialize_mote + 164
        0x000010a4:    f000fb9a    ....    BL       radio_init_rx_MF ; 0x17dc
        0x000010a8:    f000fc48    ..H.    BL       radio_init_tx ; 0x193c
        0x000010ac:    4a12        .J      LDR      r2,[pc,#72] ; [0x10f8] = 0x200004a8
        0x000010ae:    6c91        .l      LDR      r1,[r2,#0x48]
        0x000010b0:    6c50        Pl      LDR      r0,[r2,#0x44]
        0x000010b2:    2200        ."      MOVS     r2,#0
        0x000010b4:    f001f812    ....    BL       set_IF_clock_frequency ; 0x20dc
        0x000010b8:    480f        .H      LDR      r0,[pc,#60] ; [0x10f8] = 0x200004a8
        0x000010ba:    6bc0        .k      LDR      r0,[r0,#0x3c]
        0x000010bc:    9000        ..      STR      r0,[sp,#0]
        0x000010be:    480e        .H      LDR      r0,[pc,#56] ; [0x10f8] = 0x200004a8
        0x000010c0:    6b83        .k      LDR      r3,[r0,#0x38]
        0x000010c2:    211f        .!      MOVS     r1,#0x1f
        0x000010c4:    6b42        Bk      LDR      r2,[r0,#0x34]
        0x000010c6:    4608        .F      MOV      r0,r1
        0x000010c8:    f000ff8e    ....    BL       set_2M_RC_frequency ; 0x1fe8
        0x000010cc:    4809        .H      LDR      r0,[pc,#36] ; [0x10f4] = 0x47b
        0x000010ce:    3821        !8      SUBS     r0,r0,#0x21
        0x000010d0:    f001f93a    ..:.    BL       set_asc_bit ; 0x2348
        0x000010d4:    4809        .H      LDR      r0,[pc,#36] ; [0x10fc] = 0x229
        0x000010d6:    3091        .0      ADDS     r0,r0,#0x91
        0x000010d8:    f7fffc8a    ....    BL       LC_monotonic ; 0x9f0
        0x000010dc:    207d        }       MOVS     r0,#0x7d
        0x000010de:    0100        ..      LSLS     r0,r0,#4
        0x000010e0:    f000fb68    ..h.    BL       radio_init_divider ; 0x17b4
        0x000010e4:    f7fffce2    ....    BL       analog_scan_chain_write ; 0xaac
        0x000010e8:    f7fffcd8    ....    BL       analog_scan_chain_load ; 0xa9c
        0x000010ec:    bd38        8.      POP      {r3-r5,pc}
    $d
        0x000010ee:    0000        ..      DCW    0
        0x000010f0:    0000ffff    ....    DCD    65535
        0x000010f4:    0000047b    {...    DCD    1147
        0x000010f8:    200004a8    ...     DCD    536872104
        0x000010fc:    00000229    )...    DCD    553
    $t
    i.leds_debug_toggle
    leds_debug_toggle
        0x00001100:    4803        .H      LDR      r0,[pc,#12] ; [0x1110] = 0x53040000
        0x00001102:    6800        .h      LDR      r0,[r0,#0]
        0x00001104:    2101        .!      MOVS     r1,#1
        0x00001106:    03c9        ..      LSLS     r1,r1,#15
        0x00001108:    4048        H@      EORS     r0,r0,r1
        0x0000110a:    4901        .I      LDR      r1,[pc,#4] ; [0x1110] = 0x53040000
        0x0000110c:    6008        .`      STR      r0,[r1,#0]
        0x0000110e:    4770        pG      BX       lr
    $d
        0x00001110:    53040000    ...S    DCD    1392771072
    $t
    i.leds_error_off
    leds_error_off
        0x00001114:    4803        .H      LDR      r0,[pc,#12] ; [0x1124] = 0x53040000
        0x00001116:    6800        .h      LDR      r0,[r0,#0]
        0x00001118:    2101        .!      MOVS     r1,#1
        0x0000111a:    0309        ..      LSLS     r1,r1,#12
        0x0000111c:    4388        .C      BICS     r0,r0,r1
        0x0000111e:    4901        .I      LDR      r1,[pc,#4] ; [0x1124] = 0x53040000
        0x00001120:    6008        .`      STR      r0,[r1,#0]
        0x00001122:    4770        pG      BX       lr
    $d
        0x00001124:    53040000    ...S    DCD    1392771072
    $t
    i.leds_error_on
    leds_error_on
        0x00001128:    4803        .H      LDR      r0,[pc,#12] ; [0x1138] = 0x53040000
        0x0000112a:    6800        .h      LDR      r0,[r0,#0]
        0x0000112c:    2101        .!      MOVS     r1,#1
        0x0000112e:    0309        ..      LSLS     r1,r1,#12
        0x00001130:    4308        .C      ORRS     r0,r0,r1
        0x00001132:    4901        .I      LDR      r1,[pc,#4] ; [0x1138] = 0x53040000
        0x00001134:    6008        .`      STR      r0,[r1,#0]
        0x00001136:    4770        pG      BX       lr
    $d
        0x00001138:    53040000    ...S    DCD    1392771072
    $t
    i.leds_init
    leds_init
        0x0000113c:    4803        .H      LDR      r0,[pc,#12] ; [0x114c] = 0x53040000
        0x0000113e:    6800        .h      LDR      r0,[r0,#0]
        0x00001140:    210f        .!      MOVS     r1,#0xf
        0x00001142:    0309        ..      LSLS     r1,r1,#12
        0x00001144:    4388        .C      BICS     r0,r0,r1
        0x00001146:    4901        .I      LDR      r1,[pc,#4] ; [0x114c] = 0x53040000
        0x00001148:    6008        .`      STR      r0,[r1,#0]
        0x0000114a:    4770        pG      BX       lr
    $d
        0x0000114c:    53040000    ...S    DCD    1392771072
    $t
    i.leds_radio_on
    leds_radio_on
        0x00001150:    4803        .H      LDR      r0,[pc,#12] ; [0x1160] = 0x53040000
        0x00001152:    6800        .h      LDR      r0,[r0,#0]
        0x00001154:    2101        .!      MOVS     r1,#1
        0x00001156:    0349        I.      LSLS     r1,r1,#13
        0x00001158:    4308        .C      ORRS     r0,r0,r1
        0x0000115a:    4901        .I      LDR      r1,[pc,#4] ; [0x1160] = 0x53040000
        0x0000115c:    6008        .`      STR      r0,[r1,#0]
        0x0000115e:    4770        pG      BX       lr
    $d
        0x00001160:    53040000    ...S    DCD    1392771072
    $t
    i.leds_sync_off
    leds_sync_off
        0x00001164:    4803        .H      LDR      r0,[pc,#12] ; [0x1174] = 0x53040000
        0x00001166:    6800        .h      LDR      r0,[r0,#0]
        0x00001168:    2101        .!      MOVS     r1,#1
        0x0000116a:    0389        ..      LSLS     r1,r1,#14
        0x0000116c:    4388        .C      BICS     r0,r0,r1
        0x0000116e:    4901        .I      LDR      r1,[pc,#4] ; [0x1174] = 0x53040000
        0x00001170:    6008        .`      STR      r0,[r1,#0]
        0x00001172:    4770        pG      BX       lr
    $d
        0x00001174:    53040000    ...S    DCD    1392771072
    $t
    i.leds_sync_on
    leds_sync_on
        0x00001178:    4803        .H      LDR      r0,[pc,#12] ; [0x1188] = 0x53040000
        0x0000117a:    6800        .h      LDR      r0,[r0,#0]
        0x0000117c:    2101        .!      MOVS     r1,#1
        0x0000117e:    0389        ..      LSLS     r1,r1,#14
        0x00001180:    4308        .C      ORRS     r0,r0,r1
        0x00001182:    4901        .I      LDR      r1,[pc,#4] ; [0x1188] = 0x53040000
        0x00001184:    6008        .`      STR      r0,[r1,#0]
        0x00001186:    4770        pG      BX       lr
    $d
        0x00001188:    53040000    ...S    DCD    1392771072
    $t
    i.main
    main
        0x0000118c:    b510        ..      PUSH     {r4,lr}
        0x0000118e:    f000f801    ....    BL       mote_main ; 0x1194
        0x00001192:    bd10        ..      POP      {r4,pc}
    i.mote_main
    mote_main
        0x00001194:    211d        .!      MOVS     r1,#0x1d
        0x00001196:    4816        .H      LDR      r0,[pc,#88] ; [0x11f0] = 0x20000094
        0x00001198:    f7fff983    ....    BL       __aeabi_memclr ; 0x4a2
        0x0000119c:    f7fffcba    ....    BL       board_init ; 0xb14
        0x000011a0:    4814        .H      LDR      r0,[pc,#80] ; [0x11f4] = 0xcfd
        0x000011a2:    f000fccf    ....    BL       radio_setStartFrameCb ; 0x1b44
        0x000011a6:    4814        .H      LDR      r0,[pc,#80] ; [0x11f8] = 0xc79
        0x000011a8:    f000fca6    ....    BL       radio_setEndFrameCb ; 0x1af8
        0x000011ac:    f000fc6e    ..n.    BL       radio_rfOn ; 0x1a8c
        0x000011b0:    2102        .!      MOVS     r1,#2
        0x000011b2:    200b        .       MOVS     r0,#0xb
        0x000011b4:    f000fca6    ....    BL       radio_setFrequency ; 0x1b04
        0x000011b8:    f000fc70    ..p.    BL       radio_rxEnable ; 0x1a9c
        0x000011bc:    f000fc8e    ....    BL       radio_rxNow ; 0x1adc
        0x000011c0:    e014        ..      B        0x11ec ; mote_main + 88
        0x000011c2:    2000        .       MOVS     r0,#0
        0x000011c4:    490a        .I      LDR      r1,[pc,#40] ; [0x11f0] = 0x20000094
        0x000011c6:    7008        .p      STRB     r0,[r1,#0]
        0x000011c8:    e001        ..      B        0x11ce ; mote_main + 58
        0x000011ca:    f7fffd4d    ..M.    BL       board_sleep ; 0xc68
        0x000011ce:    4808        .H      LDR      r0,[pc,#32] ; [0x11f0] = 0x20000094
        0x000011d0:    7800        .x      LDRB     r0,[r0,#0]
        0x000011d2:    2800        .(      CMP      r0,#0
        0x000011d4:    d0f9        ..      BEQ      0x11ca ; mote_main + 54
        0x000011d6:    f7ffffa7    ....    BL       leds_error_on ; 0x1128
        0x000011da:    4805        .H      LDR      r0,[pc,#20] ; [0x11f0] = 0x20000094
        0x000011dc:    78c3        .x      LDRB     r3,[r0,#3]
        0x000011de:    7882        .x      LDRB     r2,[r0,#2]
        0x000011e0:    7841        Ax      LDRB     r1,[r0,#1]
        0x000011e2:    a006        ..      ADR      r0,{pc}+0x1a ; 0x11fc
        0x000011e4:    f7fff85a    ..Z.    BL       __2printf ; 0x29c
        0x000011e8:    f7ffff94    ....    BL       leds_error_off ; 0x1114
        0x000011ec:    e7e9        ..      B        0x11c2 ; mote_main + 46
    $d
        0x000011ee:    0000        ..      DCW    0
        0x000011f0:    20000094    ...     DCD    536871060
        0x000011f4:    00000cfd    ....    DCD    3325
        0x000011f8:    00000c79    y...    DCD    3193
        0x000011fc:    6b636170    pack    DCD    1801675120
        0x00001200:    203a7465    et:     DCD    540701797
        0x00001204:    25206425    %d %    DCD    622879781
        0x00001208:    64252064    d %d    DCD    1680154724
        0x0000120c:    00000a0d    ....    DCD    2573
    $t
    i.optical_32_isr
    optical_32_isr
        0x00001210:    4770        pG      BX       lr
        0x00001212:    0000        ..      MOVS     r0,r0
    i.optical_enable
    optical_enable
        0x00001214:    2003        .       MOVS     r0,#3
        0x00001216:    02c0        ..      LSLS     r0,r0,#11
        0x00001218:    4901        .I      LDR      r1,[pc,#4] ; [0x1220] = 0xe000e100
        0x0000121a:    6008        .`      STR      r0,[r1,#0]
        0x0000121c:    4770        pG      BX       lr
    $d
        0x0000121e:    0000        ..      DCW    0
        0x00001220:    e000e100    ....    DCD    3758153984
    $t
    i.optical_getCalibrationFinshed
    optical_getCalibrationFinshed
        0x00001224:    4801        .H      LDR      r0,[pc,#4] ; [0x122c] = 0x20000408
        0x00001226:    7840        @x      LDRB     r0,[r0,#1]
        0x00001228:    4770        pG      BX       lr
    $d
        0x0000122a:    0000        ..      DCW    0
        0x0000122c:    20000408    ...     DCD    536871944
    $t
    i.optical_init
    optical_init
        0x00001230:    b510        ..      PUSH     {r4,lr}
        0x00001232:    2120         !      MOVS     r1,#0x20
        0x00001234:    4804        .H      LDR      r0,[pc,#16] ; [0x1248] = 0x20000408
        0x00001236:    f7fff936    ..6.    BL       __aeabi_memclr4 ; 0x4a6
        0x0000123a:    4804        .H      LDR      r0,[pc,#16] ; [0x124c] = 0x3d194
        0x0000123c:    4902        .I      LDR      r1,[pc,#8] ; [0x1248] = 0x20000408
        0x0000123e:    6188        .a      STR      r0,[r1,#0x18]
        0x00001240:    4803        .H      LDR      r0,[pc,#12] ; [0x1250] = 0x2ba
        0x00001242:    61c8        .a      STR      r0,[r1,#0x1c]
        0x00001244:    bd10        ..      POP      {r4,pc}
    $d
        0x00001246:    0000        ..      DCW    0
        0x00001248:    20000408    ...     DCD    536871944
        0x0000124c:    0003d194    ....    DCD    250260
        0x00001250:    000002ba    ....    DCD    698
    $t
    i.optical_sfd_isr
    optical_sfd_isr
        0x00001254:    b5f0        ..      PUSH     {r4-r7,lr}
        0x00001256:    b093        ..      SUB      sp,sp,#0x4c
        0x00001258:    f000fd70    ..p.    BL       scm3c_hw_interface_get_HF_CLOCK_fine ; 0x1d3c
        0x0000125c:    4605        .F      MOV      r5,r0
        0x0000125e:    f000fd67    ..g.    BL       scm3c_hw_interface_get_HF_CLOCK_coarse ; 0x1d30
        0x00001262:    900d        ..      STR      r0,[sp,#0x34]
        0x00001264:    f000fd82    ....    BL       scm3c_hw_interface_get_RC2M_coarse ; 0x1d6c
        0x00001268:    4607        .F      MOV      r7,r0
        0x0000126a:    f000fd85    ....    BL       scm3c_hw_interface_get_RC2M_fine ; 0x1d78
        0x0000126e:    900c        ..      STR      r0,[sp,#0x30]
        0x00001270:    f000fd88    ....    BL       scm3c_hw_interface_get_RC2M_superfine ; 0x1d84
        0x00001274:    900b        ..      STR      r0,[sp,#0x2c]
        0x00001276:    f000fd67    ..g.    BL       scm3c_hw_interface_get_IF_clk_target ; 0x1d48
        0x0000127a:    900a        ..      STR      r0,[sp,#0x28]
        0x0000127c:    f000fd6a    ..j.    BL       scm3c_hw_interface_get_IF_coarse ; 0x1d54
        0x00001280:    9009        ..      STR      r0,[sp,#0x24]
        0x00001282:    f000fd6d    ..m.    BL       scm3c_hw_interface_get_IF_fine ; 0x1d60
        0x00001286:    9008        ..      STR      r0,[sp,#0x20]
        0x00001288:    207f        .       MOVS     r0,#0x7f
        0x0000128a:    2129        )!      MOVS     r1,#0x29
        0x0000128c:    0649        I.      LSLS     r1,r1,#25
        0x0000128e:    6008        .`      STR      r0,[r1,#0]
        0x00001290:    4882        .H      LDR      r0,[pc,#520] ; [0x149c] = 0x20000408
        0x00001292:    7800        .x      LDRB     r0,[r0,#0]
        0x00001294:    1c40        @.      ADDS     r0,r0,#1
        0x00001296:    4981        .I      LDR      r1,[pc,#516] ; [0x149c] = 0x20000408
        0x00001298:    7008        .p      STRB     r0,[r1,#0]
        0x0000129a:    2029        )       MOVS     r0,#0x29
        0x0000129c:    0640        @.      LSLS     r0,r0,#25
        0x0000129e:    6806        .h      LDR      r6,[r0,#0]
        0x000012a0:    487f        .H      LDR      r0,[pc,#508] ; [0x14a0] = 0x52040000
        0x000012a2:    6800        .h      LDR      r0,[r0,#0]
        0x000012a4:    9012        ..      STR      r0,[sp,#0x48]
        0x000012a6:    9812        ..      LDR      r0,[sp,#0x48]
        0x000012a8:    0400        ..      LSLS     r0,r0,#16
        0x000012aa:    1980        ..      ADDS     r0,r0,r6
        0x000012ac:    9010        ..      STR      r0,[sp,#0x40]
        0x000012ae:    487d        }H      LDR      r0,[pc,#500] ; [0x14a4] = 0x52100000
        0x000012b0:    6806        .h      LDR      r6,[r0,#0]
        0x000012b2:    487d        }H      LDR      r0,[pc,#500] ; [0x14a8] = 0x52140000
        0x000012b4:    6800        .h      LDR      r0,[r0,#0]
        0x000012b6:    9012        ..      STR      r0,[sp,#0x48]
        0x000012b8:    9812        ..      LDR      r0,[sp,#0x48]
        0x000012ba:    0400        ..      LSLS     r0,r0,#16
        0x000012bc:    1980        ..      ADDS     r0,r0,r6
        0x000012be:    900f        ..      STR      r0,[sp,#0x3c]
        0x000012c0:    487a        zH      LDR      r0,[pc,#488] ; [0x14ac] = 0x52180000
        0x000012c2:    6806        .h      LDR      r6,[r0,#0]
        0x000012c4:    487a        zH      LDR      r0,[pc,#488] ; [0x14b0] = 0x521c0000
        0x000012c6:    6800        .h      LDR      r0,[r0,#0]
        0x000012c8:    9012        ..      STR      r0,[sp,#0x48]
        0x000012ca:    9812        ..      LDR      r0,[sp,#0x48]
        0x000012cc:    0400        ..      LSLS     r0,r0,#16
        0x000012ce:    1984        ..      ADDS     r4,r0,r6
        0x000012d0:    4878        xH      LDR      r0,[pc,#480] ; [0x14b4] = 0x52280000
        0x000012d2:    6806        .h      LDR      r6,[r0,#0]
        0x000012d4:    4878        xH      LDR      r0,[pc,#480] ; [0x14b8] = 0x522c0000
        0x000012d6:    6800        .h      LDR      r0,[r0,#0]
        0x000012d8:    9012        ..      STR      r0,[sp,#0x48]
        0x000012da:    9812        ..      LDR      r0,[sp,#0x48]
        0x000012dc:    0400        ..      LSLS     r0,r0,#16
        0x000012de:    1980        ..      ADDS     r0,r0,r6
        0x000012e0:    9011        ..      STR      r0,[sp,#0x44]
        0x000012e2:    4876        vH      LDR      r0,[pc,#472] ; [0x14bc] = 0x52300000
        0x000012e4:    6806        .h      LDR      r6,[r0,#0]
        0x000012e6:    4876        vH      LDR      r0,[pc,#472] ; [0x14c0] = 0x52340000
        0x000012e8:    6800        .h      LDR      r0,[r0,#0]
        0x000012ea:    9012        ..      STR      r0,[sp,#0x48]
        0x000012ec:    9812        ..      LDR      r0,[sp,#0x48]
        0x000012ee:    0400        ..      LSLS     r0,r0,#16
        0x000012f0:    1980        ..      ADDS     r0,r0,r6
        0x000012f2:    900e        ..      STR      r0,[sp,#0x38]
        0x000012f4:    2000        .       MOVS     r0,#0
        0x000012f6:    2129        )!      MOVS     r1,#0x29
        0x000012f8:    0649        I.      LSLS     r1,r1,#25
        0x000012fa:    6008        .`      STR      r0,[r1,#0]
        0x000012fc:    4871        qH      LDR      r0,[pc,#452] ; [0x14c4] = 0x3fff
        0x000012fe:    6008        .`      STR      r0,[r1,#0]
        0x00001300:    4866        fH      LDR      r0,[pc,#408] ; [0x149c] = 0x20000408
        0x00001302:    7800        .x      LDRB     r0,[r0,#0]
        0x00001304:    2802        .(      CMP      r0,#2
        0x00001306:    dd7d        }.      BLE      0x1404 ; optical_sfd_isr + 432
        0x00001308:    496f        oI      LDR      r1,[pc,#444] ; [0x14c8] = 0x1e78c8
        0x0000130a:    980f        ..      LDR      r0,[sp,#0x3c]
        0x0000130c:    4288        .B      CMP      r0,r1
        0x0000130e:    d20a        ..      BCS      0x1326 ; optical_sfd_isr + 210
        0x00001310:    2d00        .-      CMP      r5,#0
        0x00001312:    d107        ..      BNE      0x1324 ; optical_sfd_isr + 208
        0x00001314:    980d        ..      LDR      r0,[sp,#0x34]
        0x00001316:    1e40        @.      SUBS     r0,r0,#1
        0x00001318:    900d        ..      STR      r0,[sp,#0x34]
        0x0000131a:    250a        .%      MOVS     r5,#0xa
        0x0000131c:    2003        .       MOVS     r0,#3
        0x0000131e:    495f        _I      LDR      r1,[pc,#380] ; [0x149c] = 0x20000408
        0x00001320:    7008        .p      STRB     r0,[r1,#0]
        0x00001322:    e000        ..      B        0x1326 ; optical_sfd_isr + 210
        0x00001324:    1e6d        m.      SUBS     r5,r5,#1
        0x00001326:    4969        iI      LDR      r1,[pc,#420] ; [0x14cc] = 0x1e9038
        0x00001328:    980f        ..      LDR      r0,[sp,#0x3c]
        0x0000132a:    4288        .B      CMP      r0,r1
        0x0000132c:    d90a        ..      BLS      0x1344 ; optical_sfd_isr + 240
        0x0000132e:    2d1f        .-      CMP      r5,#0x1f
        0x00001330:    d107        ..      BNE      0x1342 ; optical_sfd_isr + 238
        0x00001332:    980d        ..      LDR      r0,[sp,#0x34]
        0x00001334:    1c40        @.      ADDS     r0,r0,#1
        0x00001336:    900d        ..      STR      r0,[sp,#0x34]
        0x00001338:    2514        .%      MOVS     r5,#0x14
        0x0000133a:    2003        .       MOVS     r0,#3
        0x0000133c:    4957        WI      LDR      r1,[pc,#348] ; [0x149c] = 0x20000408
        0x0000133e:    7008        .p      STRB     r0,[r1,#0]
        0x00001340:    e000        ..      B        0x1344 ; optical_sfd_isr + 240
        0x00001342:    1c6d        m.      ADDS     r5,r5,#1
        0x00001344:    4629        )F      MOV      r1,r5
        0x00001346:    980d        ..      LDR      r0,[sp,#0x34]
        0x00001348:    f001f810    ....    BL       set_sys_clk_secondary_freq ; 0x236c
        0x0000134c:    980d        ..      LDR      r0,[sp,#0x34]
        0x0000134e:    f000fd41    ..A.    BL       scm3c_hw_interface_set_HF_CLOCK_coarse ; 0x1dd4
        0x00001352:    4628        (F      MOV      r0,r5
        0x00001354:    f000fd44    ..D.    BL       scm3c_hw_interface_set_HF_CLOCK_fine ; 0x1de0
        0x00001358:    4850        PH      LDR      r0,[pc,#320] ; [0x149c] = 0x20000408
        0x0000135a:    6980        .i      LDR      r0,[r0,#0x18]
        0x0000135c:    9911        ..      LDR      r1,[sp,#0x44]
        0x0000135e:    4288        .B      CMP      r0,r1
        0x00001360:    d204        ..      BCS      0x136c ; optical_sfd_isr + 280
        0x00001362:    484e        NH      LDR      r0,[pc,#312] ; [0x149c] = 0x20000408
        0x00001364:    69c0        .i      LDR      r0,[r0,#0x1c]
        0x00001366:    1e40        @.      SUBS     r0,r0,#1
        0x00001368:    494c        LI      LDR      r1,[pc,#304] ; [0x149c] = 0x20000408
        0x0000136a:    61c8        .a      STR      r0,[r1,#0x1c]
        0x0000136c:    484b        KH      LDR      r0,[pc,#300] ; [0x149c] = 0x20000408
        0x0000136e:    6980        .i      LDR      r0,[r0,#0x18]
        0x00001370:    4601        .F      MOV      r1,r0
        0x00001372:    9811        ..      LDR      r0,[sp,#0x44]
        0x00001374:    4281        .B      CMP      r1,r0
        0x00001376:    d904        ..      BLS      0x1382 ; optical_sfd_isr + 302
        0x00001378:    4848        HH      LDR      r0,[pc,#288] ; [0x149c] = 0x20000408
        0x0000137a:    69c0        .i      LDR      r0,[r0,#0x1c]
        0x0000137c:    1c40        @.      ADDS     r0,r0,#1
        0x0000137e:    4947        GI      LDR      r1,[pc,#284] ; [0x149c] = 0x20000408
        0x00001380:    61c8        .a      STR      r0,[r1,#0x1c]
        0x00001382:    4946        FI      LDR      r1,[pc,#280] ; [0x149c] = 0x20000408
        0x00001384:    69c8        .i      LDR      r0,[r1,#0x1c]
        0x00001386:    f7fffb33    ..3.    BL       LC_monotonic ; 0x9f0
        0x0000138a:    4851        QH      LDR      r0,[pc,#324] ; [0x14d0] = 0x30f98
        0x0000138c:    4284        .B      CMP      r4,r0
        0x0000138e:    d901        ..      BLS      0x1394 ; optical_sfd_isr + 320
        0x00001390:    1c7f        ..      ADDS     r7,r7,#1
        0x00001392:    e00d        ..      B        0x13b0 ; optical_sfd_isr + 348
        0x00001394:    484f        OH      LDR      r0,[pc,#316] ; [0x14d4] = 0x30d90
        0x00001396:    4284        .B      CMP      r4,r0
        0x00001398:    d903        ..      BLS      0x13a2 ; optical_sfd_isr + 334
        0x0000139a:    980c        ..      LDR      r0,[sp,#0x30]
        0x0000139c:    1c40        @.      ADDS     r0,r0,#1
        0x0000139e:    900c        ..      STR      r0,[sp,#0x30]
        0x000013a0:    e006        ..      B        0x13b0 ; optical_sfd_isr + 348
        0x000013a2:    484c        LH      LDR      r0,[pc,#304] ; [0x14d4] = 0x30d90
        0x000013a4:    3841        A8      SUBS     r0,r0,#0x41
        0x000013a6:    4284        .B      CMP      r4,r0
        0x000013a8:    d902        ..      BLS      0x13b0 ; optical_sfd_isr + 348
        0x000013aa:    980b        ..      LDR      r0,[sp,#0x2c]
        0x000013ac:    1c40        @.      ADDS     r0,r0,#1
        0x000013ae:    900b        ..      STR      r0,[sp,#0x2c]
        0x000013b0:    4849        IH      LDR      r0,[pc,#292] ; [0x14d8] = 0x30ae8
        0x000013b2:    4284        .B      CMP      r4,r0
        0x000013b4:    d201        ..      BCS      0x13ba ; optical_sfd_isr + 358
        0x000013b6:    1e7f        ..      SUBS     r7,r7,#1
        0x000013b8:    e00e        ..      B        0x13d8 ; optical_sfd_isr + 388
        0x000013ba:    4846        FH      LDR      r0,[pc,#280] ; [0x14d4] = 0x30d90
        0x000013bc:    38a0        .8      SUBS     r0,r0,#0xa0
        0x000013be:    4284        .B      CMP      r4,r0
        0x000013c0:    d203        ..      BCS      0x13ca ; optical_sfd_isr + 374
        0x000013c2:    980c        ..      LDR      r0,[sp,#0x30]
        0x000013c4:    1e40        @.      SUBS     r0,r0,#1
        0x000013c6:    900c        ..      STR      r0,[sp,#0x30]
        0x000013c8:    e006        ..      B        0x13d8 ; optical_sfd_isr + 388
        0x000013ca:    4842        BH      LDR      r0,[pc,#264] ; [0x14d4] = 0x30d90
        0x000013cc:    385f        _8      SUBS     r0,r0,#0x5f
        0x000013ce:    4284        .B      CMP      r4,r0
        0x000013d0:    d202        ..      BCS      0x13d8 ; optical_sfd_isr + 388
        0x000013d2:    980b        ..      LDR      r0,[sp,#0x2c]
        0x000013d4:    1e40        @.      SUBS     r0,r0,#1
        0x000013d6:    900b        ..      STR      r0,[sp,#0x2c]
        0x000013d8:    980b        ..      LDR      r0,[sp,#0x2c]
        0x000013da:    9000        ..      STR      r0,[sp,#0]
        0x000013dc:    463a        :F      MOV      r2,r7
        0x000013de:    211f        .!      MOVS     r1,#0x1f
        0x000013e0:    4608        .F      MOV      r0,r1
        0x000013e2:    9b0c        ..      LDR      r3,[sp,#0x30]
        0x000013e4:    f000fe00    ....    BL       set_2M_RC_frequency ; 0x1fe8
        0x000013e8:    4638        8F      MOV      r0,r7
        0x000013ea:    f000fd0b    ....    BL       scm3c_hw_interface_set_RC2M_coarse ; 0x1e04
        0x000013ee:    980c        ..      LDR      r0,[sp,#0x30]
        0x000013f0:    f000fd0e    ....    BL       scm3c_hw_interface_set_RC2M_fine ; 0x1e10
        0x000013f4:    980b        ..      LDR      r0,[sp,#0x2c]
        0x000013f6:    f000fd11    ....    BL       scm3c_hw_interface_set_RC2M_superfine ; 0x1e1c
        0x000013fa:    4938        8I      LDR      r1,[pc,#224] ; [0x14dc] = 0x186f78
        0x000013fc:    980e        ..      LDR      r0,[sp,#0x38]
        0x000013fe:    4288        .B      CMP      r0,r1
        0x00001400:    d904        ..      BLS      0x140c ; optical_sfd_isr + 440
        0x00001402:    e000        ..      B        0x1406 ; optical_sfd_isr + 434
        0x00001404:    e018        ..      B        0x1438 ; optical_sfd_isr + 484
        0x00001406:    9808        ..      LDR      r0,[sp,#0x20]
        0x00001408:    1c40        @.      ADDS     r0,r0,#1
        0x0000140a:    9008        ..      STR      r0,[sp,#0x20]
        0x0000140c:    4934        4I      LDR      r1,[pc,#208] ; [0x14e0] = 0x186488
        0x0000140e:    980e        ..      LDR      r0,[sp,#0x38]
        0x00001410:    4288        .B      CMP      r0,r1
        0x00001412:    d202        ..      BCS      0x141a ; optical_sfd_isr + 454
        0x00001414:    9808        ..      LDR      r0,[sp,#0x20]
        0x00001416:    1e40        @.      SUBS     r0,r0,#1
        0x00001418:    9008        ..      STR      r0,[sp,#0x20]
        0x0000141a:    2200        ."      MOVS     r2,#0
        0x0000141c:    9908        ..      LDR      r1,[sp,#0x20]
        0x0000141e:    9809        ..      LDR      r0,[sp,#0x24]
        0x00001420:    f000fe5c    ..\.    BL       set_IF_clock_frequency ; 0x20dc
        0x00001424:    9809        ..      LDR      r0,[sp,#0x24]
        0x00001426:    f000fce1    ....    BL       scm3c_hw_interface_set_IF_coarse ; 0x1dec
        0x0000142a:    9808        ..      LDR      r0,[sp,#0x20]
        0x0000142c:    f000fce4    ....    BL       scm3c_hw_interface_set_IF_fine ; 0x1df8
        0x00001430:    f7fffb3c    ..<.    BL       analog_scan_chain_write ; 0xaac
        0x00001434:    f7fffb32    ..2.    BL       analog_scan_chain_load ; 0xa9c
        0x00001438:    4a18        .J      LDR      r2,[pc,#96] ; [0x149c] = 0x20000408
        0x0000143a:    990e        ..      LDR      r1,[sp,#0x38]
        0x0000143c:    9808        ..      LDR      r0,[sp,#0x20]
        0x0000143e:    69d2        .i      LDR      r2,[r2,#0x1c]
        0x00001440:    9b11        ..      LDR      r3,[sp,#0x44]
        0x00001442:    9303        ..      STR      r3,[sp,#0xc]
        0x00001444:    9204        ..      STR      r2,[sp,#0x10]
        0x00001446:    9105        ..      STR      r1,[sp,#0x14]
        0x00001448:    9006        ..      STR      r0,[sp,#0x18]
        0x0000144a:    990c        ..      LDR      r1,[sp,#0x30]
        0x0000144c:    980b        ..      LDR      r0,[sp,#0x2c]
        0x0000144e:    4623        #F      MOV      r3,r4
        0x00001450:    462a        *F      MOV      r2,r5
        0x00001452:    9700        ..      STR      r7,[sp,#0]
        0x00001454:    9101        ..      STR      r1,[sp,#4]
        0x00001456:    9002        ..      STR      r0,[sp,#8]
        0x00001458:    a022        ".      ADR      r0,{pc}+0x8c ; 0x14e4
        0x0000145a:    990f        ..      LDR      r1,[sp,#0x3c]
        0x0000145c:    f7feff1e    ....    BL       __2printf ; 0x29c
        0x00001460:    480e        .H      LDR      r0,[pc,#56] ; [0x149c] = 0x20000408
        0x00001462:    7800        .x      LDRB     r0,[r0,#0]
        0x00001464:    2819        .(      CMP      r0,#0x19
        0x00001466:    d116        ..      BNE      0x1496 ; optical_sfd_isr + 578
        0x00001468:    2003        .       MOVS     r0,#3
        0x0000146a:    02c0        ..      LSLS     r0,r0,#11
        0x0000146c:    492a        *I      LDR      r1,[pc,#168] ; [0x1518] = 0xe000e180
        0x0000146e:    6008        .`      STR      r0,[r1,#0]
        0x00001470:    2000        .       MOVS     r0,#0
        0x00001472:    490a        .I      LDR      r1,[pc,#40] ; [0x149c] = 0x20000408
        0x00001474:    7008        .p      STRB     r0,[r1,#0]
        0x00001476:    2001        .       MOVS     r0,#1
        0x00001478:    7048        Hp      STRB     r0,[r1,#1]
        0x0000147a:    9810        ..      LDR      r0,[sp,#0x40]
        0x0000147c:    6048        H`      STR      r0,[r1,#4]
        0x0000147e:    4608        .F      MOV      r0,r1
        0x00001480:    6084        .`      STR      r4,[r0,#8]
        0x00001482:    980e        ..      LDR      r0,[sp,#0x38]
        0x00001484:    60c8        .`      STR      r0,[r1,#0xc]
        0x00001486:    9811        ..      LDR      r0,[sp,#0x44]
        0x00001488:    6108        .a      STR      r0,[r1,#0x10]
        0x0000148a:    980f        ..      LDR      r0,[sp,#0x3c]
        0x0000148c:    6148        Ha      STR      r0,[r1,#0x14]
        0x0000148e:    2000        .       MOVS     r0,#0
        0x00001490:    2129        )!      MOVS     r1,#0x29
        0x00001492:    0649        I.      LSLS     r1,r1,#25
        0x00001494:    6008        .`      STR      r0,[r1,#0]
        0x00001496:    b013        ..      ADD      sp,sp,#0x4c
        0x00001498:    bdf0        ..      POP      {r4-r7,pc}
    $d
        0x0000149a:    0000        ..      DCW    0
        0x0000149c:    20000408    ...     DCD    536871944
        0x000014a0:    52040000    ...R    DCD    1375993856
        0x000014a4:    52100000    ...R    DCD    1376780288
        0x000014a8:    52140000    ...R    DCD    1377042432
        0x000014ac:    52180000    ...R    DCD    1377304576
        0x000014b0:    521c0000    ...R    DCD    1377566720
        0x000014b4:    52280000    ..(R    DCD    1378353152
        0x000014b8:    522c0000    ..,R    DCD    1378615296
        0x000014bc:    52300000    ..0R    DCD    1378877440
        0x000014c0:    52340000    ..4R    DCD    1379139584
        0x000014c4:    00003fff    .?..    DCD    16383
        0x000014c8:    001e78c8    .x..    DCD    1997000
        0x000014cc:    001e9038    8...    DCD    2003000
        0x000014d0:    00030f98    ....    DCD    200600
        0x000014d4:    00030d90    ....    DCD    200080
        0x000014d8:    00030ae8    ....    DCD    199400
        0x000014dc:    00186f78    xo..    DCD    1601400
        0x000014e0:    00186488    .d..    DCD    1598600
        0x000014e4:    253d4648    HF=%    DCD    624772680
        0x000014e8:    64252d64    d-%d    DCD    1680158052
        0x000014ec:    32202020       2    DCD    840966176
        0x000014f0:    64253d4d    M=%d    DCD    1680162125
        0x000014f4:    2c64252d    -%d,    DCD    744760621
        0x000014f8:    252c6425    %d,%    DCD    623666213
        0x000014fc:    20202064    d       DCD    538976356
        0x00001500:    253d434c    LC=%    DCD    624771916
        0x00001504:    64252d64    d-%d    DCD    1680158052
        0x00001508:    49202020       I    DCD    1226842144
        0x0000150c:    64253d46    F=%d    DCD    1680162118
        0x00001510:    0d64252d    -%d.    DCD    224666925
        0x00001514:    0000000a    ....    DCD    10
        0x00001518:    e000e180    ....    DCD    3758154112
    $t
    i.prescaler
    prescaler
        0x0000151c:    2800        .(      CMP      r0,#0
        0x0000151e:    d124        $.      BNE      0x156a ; prescaler + 78
        0x00001520:    4970        pI      LDR      r1,[pc,#448] ; [0x16e4] = 0x20000428
        0x00001522:    6fc9        .o      LDR      r1,[r1,#0x7c]
        0x00001524:    2204        ."      MOVS     r2,#4
        0x00001526:    4311        .C      ORRS     r1,r1,r2
        0x00001528:    4a6e        nJ      LDR      r2,[pc,#440] ; [0x16e4] = 0x20000428
        0x0000152a:    67d1        .g      STR      r1,[r2,#0x7c]
        0x0000152c:    4611        .F      MOV      r1,r2
        0x0000152e:    6fc9        .o      LDR      r1,[r1,#0x7c]
        0x00001530:    2202        ."      MOVS     r2,#2
        0x00001532:    4391        .C      BICS     r1,r1,r2
        0x00001534:    4a6b        kJ      LDR      r2,[pc,#428] ; [0x16e4] = 0x20000428
        0x00001536:    67d1        .g      STR      r1,[r2,#0x7c]
        0x00001538:    4611        .F      MOV      r1,r2
        0x0000153a:    3180        .1      ADDS     r1,r1,#0x80
        0x0000153c:    6809        .h      LDR      r1,[r1,#0]
        0x0000153e:    2201        ."      MOVS     r2,#1
        0x00001540:    07d2        ..      LSLS     r2,r2,#31
        0x00001542:    4311        .C      ORRS     r1,r1,r2
        0x00001544:    4a67        gJ      LDR      r2,[pc,#412] ; [0x16e4] = 0x20000428
        0x00001546:    3280        .2      ADDS     r2,r2,#0x80
        0x00001548:    6011        .`      STR      r1,[r2,#0]
        0x0000154a:    4966        fI      LDR      r1,[pc,#408] ; [0x16e4] = 0x20000428
        0x0000154c:    6fc9        .o      LDR      r1,[r1,#0x7c]
        0x0000154e:    0849        I.      LSRS     r1,r1,#1
        0x00001550:    0049        I.      LSLS     r1,r1,#1
        0x00001552:    3a80        .:      SUBS     r2,r2,#0x80
        0x00001554:    67d1        .g      STR      r1,[r2,#0x7c]
        0x00001556:    4611        .F      MOV      r1,r2
        0x00001558:    3180        .1      ADDS     r1,r1,#0x80
        0x0000155a:    6809        .h      LDR      r1,[r1,#0]
        0x0000155c:    2207        ."      MOVS     r2,#7
        0x0000155e:    0712        ..      LSLS     r2,r2,#28
        0x00001560:    4311        .C      ORRS     r1,r1,r2
        0x00001562:    4a60        `J      LDR      r2,[pc,#384] ; [0x16e4] = 0x20000428
        0x00001564:    3280        .2      ADDS     r2,r2,#0x80
        0x00001566:    6011        .`      STR      r1,[r2,#0]
        0x00001568:    e0ba        ..      B        0x16e0 ; prescaler + 452
        0x0000156a:    2801        .(      CMP      r0,#1
        0x0000156c:    d122        ".      BNE      0x15b4 ; prescaler + 152
        0x0000156e:    495d        ]I      LDR      r1,[pc,#372] ; [0x16e4] = 0x20000428
        0x00001570:    6fc9        .o      LDR      r1,[r1,#0x7c]
        0x00001572:    2202        ."      MOVS     r2,#2
        0x00001574:    4311        .C      ORRS     r1,r1,r2
        0x00001576:    4a5b        [J      LDR      r2,[pc,#364] ; [0x16e4] = 0x20000428
        0x00001578:    67d1        .g      STR      r1,[r2,#0x7c]
        0x0000157a:    4611        .F      MOV      r1,r2
        0x0000157c:    6fc9        .o      LDR      r1,[r1,#0x7c]
        0x0000157e:    2204        ."      MOVS     r2,#4
        0x00001580:    4391        .C      BICS     r1,r1,r2
        0x00001582:    4a58        XJ      LDR      r2,[pc,#352] ; [0x16e4] = 0x20000428
        0x00001584:    67d1        .g      STR      r1,[r2,#0x7c]
        0x00001586:    4611        .F      MOV      r1,r2
        0x00001588:    3180        .1      ADDS     r1,r1,#0x80
        0x0000158a:    6809        .h      LDR      r1,[r1,#0]
        0x0000158c:    07c2        ..      LSLS     r2,r0,#31
        0x0000158e:    4311        .C      ORRS     r1,r1,r2
        0x00001590:    4a54        TJ      LDR      r2,[pc,#336] ; [0x16e4] = 0x20000428
        0x00001592:    3280        .2      ADDS     r2,r2,#0x80
        0x00001594:    6011        .`      STR      r1,[r2,#0]
        0x00001596:    4953        SI      LDR      r1,[pc,#332] ; [0x16e4] = 0x20000428
        0x00001598:    6fc9        .o      LDR      r1,[r1,#0x7c]
        0x0000159a:    4381        .C      BICS     r1,r1,r0
        0x0000159c:    3a80        .:      SUBS     r2,r2,#0x80
        0x0000159e:    67d1        .g      STR      r1,[r2,#0x7c]
        0x000015a0:    4611        .F      MOV      r1,r2
        0x000015a2:    3180        .1      ADDS     r1,r1,#0x80
        0x000015a4:    6809        .h      LDR      r1,[r1,#0]
        0x000015a6:    2207        ."      MOVS     r2,#7
        0x000015a8:    0712        ..      LSLS     r2,r2,#28
        0x000015aa:    4311        .C      ORRS     r1,r1,r2
        0x000015ac:    4a4d        MJ      LDR      r2,[pc,#308] ; [0x16e4] = 0x20000428
        0x000015ae:    3280        .2      ADDS     r2,r2,#0x80
        0x000015b0:    6011        .`      STR      r1,[r2,#0]
        0x000015b2:    e095        ..      B        0x16e0 ; prescaler + 452
        0x000015b4:    2802        .(      CMP      r0,#2
        0x000015b6:    d123        #.      BNE      0x1600 ; prescaler + 228
        0x000015b8:    494a        JI      LDR      r1,[pc,#296] ; [0x16e4] = 0x20000428
        0x000015ba:    6fc9        .o      LDR      r1,[r1,#0x7c]
        0x000015bc:    2204        ."      MOVS     r2,#4
        0x000015be:    4311        .C      ORRS     r1,r1,r2
        0x000015c0:    4a48        HJ      LDR      r2,[pc,#288] ; [0x16e4] = 0x20000428
        0x000015c2:    67d1        .g      STR      r1,[r2,#0x7c]
        0x000015c4:    4611        .F      MOV      r1,r2
        0x000015c6:    6fc9        .o      LDR      r1,[r1,#0x7c]
        0x000015c8:    2202        ."      MOVS     r2,#2
        0x000015ca:    4391        .C      BICS     r1,r1,r2
        0x000015cc:    4a45        EJ      LDR      r2,[pc,#276] ; [0x16e4] = 0x20000428
        0x000015ce:    67d1        .g      STR      r1,[r2,#0x7c]
        0x000015d0:    4611        .F      MOV      r1,r2
        0x000015d2:    3180        .1      ADDS     r1,r1,#0x80
        0x000015d4:    6809        .h      LDR      r1,[r1,#0]
        0x000015d6:    004a        J.      LSLS     r2,r1,#1
        0x000015d8:    0852        R.      LSRS     r2,r2,#1
        0x000015da:    4942        BI      LDR      r1,[pc,#264] ; [0x16e4] = 0x20000428
        0x000015dc:    3180        .1      ADDS     r1,r1,#0x80
        0x000015de:    600a        .`      STR      r2,[r1,#0]
        0x000015e0:    3980        .9      SUBS     r1,r1,#0x80
        0x000015e2:    6fc9        .o      LDR      r1,[r1,#0x7c]
        0x000015e4:    2201        ."      MOVS     r2,#1
        0x000015e6:    4311        .C      ORRS     r1,r1,r2
        0x000015e8:    4a3e        >J      LDR      r2,[pc,#248] ; [0x16e4] = 0x20000428
        0x000015ea:    67d1        .g      STR      r1,[r2,#0x7c]
        0x000015ec:    4611        .F      MOV      r1,r2
        0x000015ee:    3180        .1      ADDS     r1,r1,#0x80
        0x000015f0:    6809        .h      LDR      r1,[r1,#0]
        0x000015f2:    2207        ."      MOVS     r2,#7
        0x000015f4:    0712        ..      LSLS     r2,r2,#28
        0x000015f6:    4311        .C      ORRS     r1,r1,r2
        0x000015f8:    4a3a        :J      LDR      r2,[pc,#232] ; [0x16e4] = 0x20000428
        0x000015fa:    3280        .2      ADDS     r2,r2,#0x80
        0x000015fc:    6011        .`      STR      r1,[r2,#0]
        0x000015fe:    e06f        o.      B        0x16e0 ; prescaler + 452
        0x00001600:    2803        .(      CMP      r0,#3
        0x00001602:    d123        #.      BNE      0x164c ; prescaler + 304
        0x00001604:    4937        7I      LDR      r1,[pc,#220] ; [0x16e4] = 0x20000428
        0x00001606:    6fc9        .o      LDR      r1,[r1,#0x7c]
        0x00001608:    2204        ."      MOVS     r2,#4
        0x0000160a:    4311        .C      ORRS     r1,r1,r2
        0x0000160c:    4a35        5J      LDR      r2,[pc,#212] ; [0x16e4] = 0x20000428
        0x0000160e:    67d1        .g      STR      r1,[r2,#0x7c]
        0x00001610:    4611        .F      MOV      r1,r2
        0x00001612:    6fc9        .o      LDR      r1,[r1,#0x7c]
        0x00001614:    2202        ."      MOVS     r2,#2
        0x00001616:    4391        .C      BICS     r1,r1,r2
        0x00001618:    4a32        2J      LDR      r2,[pc,#200] ; [0x16e4] = 0x20000428
        0x0000161a:    67d1        .g      STR      r1,[r2,#0x7c]
        0x0000161c:    4611        .F      MOV      r1,r2
        0x0000161e:    3180        .1      ADDS     r1,r1,#0x80
        0x00001620:    6809        .h      LDR      r1,[r1,#0]
        0x00001622:    07c2        ..      LSLS     r2,r0,#31
        0x00001624:    4311        .C      ORRS     r1,r1,r2
        0x00001626:    4a2f        /J      LDR      r2,[pc,#188] ; [0x16e4] = 0x20000428
        0x00001628:    3280        .2      ADDS     r2,r2,#0x80
        0x0000162a:    6011        .`      STR      r1,[r2,#0]
        0x0000162c:    492d        -I      LDR      r1,[pc,#180] ; [0x16e4] = 0x20000428
        0x0000162e:    6fc9        .o      LDR      r1,[r1,#0x7c]
        0x00001630:    0849        I.      LSRS     r1,r1,#1
        0x00001632:    0049        I.      LSLS     r1,r1,#1
        0x00001634:    3a80        .:      SUBS     r2,r2,#0x80
        0x00001636:    67d1        .g      STR      r1,[r2,#0x7c]
        0x00001638:    4611        .F      MOV      r1,r2
        0x0000163a:    3180        .1      ADDS     r1,r1,#0x80
        0x0000163c:    6809        .h      LDR      r1,[r1,#0]
        0x0000163e:    2201        ."      MOVS     r2,#1
        0x00001640:    0792        ..      LSLS     r2,r2,#30
        0x00001642:    4391        .C      BICS     r1,r1,r2
        0x00001644:    4a27        'J      LDR      r2,[pc,#156] ; [0x16e4] = 0x20000428
        0x00001646:    3280        .2      ADDS     r2,r2,#0x80
        0x00001648:    6011        .`      STR      r1,[r2,#0]
        0x0000164a:    e049        I.      B        0x16e0 ; prescaler + 452
        0x0000164c:    2804        .(      CMP      r0,#4
        0x0000164e:    d122        ".      BNE      0x1696 ; prescaler + 378
        0x00001650:    4924        $I      LDR      r1,[pc,#144] ; [0x16e4] = 0x20000428
        0x00001652:    6fc9        .o      LDR      r1,[r1,#0x7c]
        0x00001654:    2204        ."      MOVS     r2,#4
        0x00001656:    4311        .C      ORRS     r1,r1,r2
        0x00001658:    4a22        "J      LDR      r2,[pc,#136] ; [0x16e4] = 0x20000428
        0x0000165a:    67d1        .g      STR      r1,[r2,#0x7c]
        0x0000165c:    4611        .F      MOV      r1,r2
        0x0000165e:    6fc9        .o      LDR      r1,[r1,#0x7c]
        0x00001660:    2202        ."      MOVS     r2,#2
        0x00001662:    4391        .C      BICS     r1,r1,r2
        0x00001664:    4a1f        .J      LDR      r2,[pc,#124] ; [0x16e4] = 0x20000428
        0x00001666:    67d1        .g      STR      r1,[r2,#0x7c]
        0x00001668:    4611        .F      MOV      r1,r2
        0x0000166a:    3180        .1      ADDS     r1,r1,#0x80
        0x0000166c:    6809        .h      LDR      r1,[r1,#0]
        0x0000166e:    0742        B.      LSLS     r2,r0,#29
        0x00001670:    4311        .C      ORRS     r1,r1,r2
        0x00001672:    4a1c        .J      LDR      r2,[pc,#112] ; [0x16e4] = 0x20000428
        0x00001674:    3280        .2      ADDS     r2,r2,#0x80
        0x00001676:    6011        .`      STR      r1,[r2,#0]
        0x00001678:    491a        .I      LDR      r1,[pc,#104] ; [0x16e4] = 0x20000428
        0x0000167a:    6fc9        .o      LDR      r1,[r1,#0x7c]
        0x0000167c:    0849        I.      LSRS     r1,r1,#1
        0x0000167e:    0049        I.      LSLS     r1,r1,#1
        0x00001680:    3a80        .:      SUBS     r2,r2,#0x80
        0x00001682:    67d1        .g      STR      r1,[r2,#0x7c]
        0x00001684:    4611        .F      MOV      r1,r2
        0x00001686:    3180        .1      ADDS     r1,r1,#0x80
        0x00001688:    6809        .h      LDR      r1,[r1,#0]
        0x0000168a:    06c2        ..      LSLS     r2,r0,#27
        0x0000168c:    4391        .C      BICS     r1,r1,r2
        0x0000168e:    4a15        .J      LDR      r2,[pc,#84] ; [0x16e4] = 0x20000428
        0x00001690:    3280        .2      ADDS     r2,r2,#0x80
        0x00001692:    6011        .`      STR      r1,[r2,#0]
        0x00001694:    e024        $.      B        0x16e0 ; prescaler + 452
        0x00001696:    2805        .(      CMP      r0,#5
        0x00001698:    d122        ".      BNE      0x16e0 ; prescaler + 452
        0x0000169a:    4912        .I      LDR      r1,[pc,#72] ; [0x16e4] = 0x20000428
        0x0000169c:    6fc9        .o      LDR      r1,[r1,#0x7c]
        0x0000169e:    2204        ."      MOVS     r2,#4
        0x000016a0:    4311        .C      ORRS     r1,r1,r2
        0x000016a2:    4a10        .J      LDR      r2,[pc,#64] ; [0x16e4] = 0x20000428
        0x000016a4:    67d1        .g      STR      r1,[r2,#0x7c]
        0x000016a6:    4611        .F      MOV      r1,r2
        0x000016a8:    6fc9        .o      LDR      r1,[r1,#0x7c]
        0x000016aa:    2202        ."      MOVS     r2,#2
        0x000016ac:    4391        .C      BICS     r1,r1,r2
        0x000016ae:    4a0d        .J      LDR      r2,[pc,#52] ; [0x16e4] = 0x20000428
        0x000016b0:    67d1        .g      STR      r1,[r2,#0x7c]
        0x000016b2:    4611        .F      MOV      r1,r2
        0x000016b4:    3180        .1      ADDS     r1,r1,#0x80
        0x000016b6:    6809        .h      LDR      r1,[r1,#0]
        0x000016b8:    07c2        ..      LSLS     r2,r0,#31
        0x000016ba:    4311        .C      ORRS     r1,r1,r2
        0x000016bc:    4a09        .J      LDR      r2,[pc,#36] ; [0x16e4] = 0x20000428
        0x000016be:    3280        .2      ADDS     r2,r2,#0x80
        0x000016c0:    6011        .`      STR      r1,[r2,#0]
        0x000016c2:    4908        .I      LDR      r1,[pc,#32] ; [0x16e4] = 0x20000428
        0x000016c4:    6fc9        .o      LDR      r1,[r1,#0x7c]
        0x000016c6:    0849        I.      LSRS     r1,r1,#1
        0x000016c8:    0049        I.      LSLS     r1,r1,#1
        0x000016ca:    3a80        .:      SUBS     r2,r2,#0x80
        0x000016cc:    67d1        .g      STR      r1,[r2,#0x7c]
        0x000016ce:    4611        .F      MOV      r1,r2
        0x000016d0:    3180        .1      ADDS     r1,r1,#0x80
        0x000016d2:    6809        .h      LDR      r1,[r1,#0]
        0x000016d4:    2203        ."      MOVS     r2,#3
        0x000016d6:    0752        R.      LSLS     r2,r2,#29
        0x000016d8:    4391        .C      BICS     r1,r1,r2
        0x000016da:    4a02        .J      LDR      r2,[pc,#8] ; [0x16e4] = 0x20000428
        0x000016dc:    3280        .2      ADDS     r2,r2,#0x80
        0x000016de:    6011        .`      STR      r1,[r2,#0]
        0x000016e0:    4770        pG      BX       lr
    $d
        0x000016e2:    0000        ..      DCW    0
        0x000016e4:    20000428    (..     DCD    536871976
    $t
    i.radio_getReceivedFrame
    radio_getReceivedFrame
        0x000016e8:    b5ff        ..      PUSH     {r0-r7,lr}
        0x000016ea:    b081        ..      SUB      sp,sp,#4
        0x000016ec:    460c        .F      MOV      r4,r1
        0x000016ee:    4615        .F      MOV      r5,r2
        0x000016f0:    461e        .F      MOV      r6,r3
        0x000016f2:    9f0a        ..      LDR      r7,[sp,#0x28]
        0x000016f4:    480d        .H      LDR      r0,[pc,#52] ; [0x172c] = 0x200001c0
        0x000016f6:    7a81        .z      LDRB     r1,[r0,#0xa]
        0x000016f8:    980b        ..      LDR      r0,[sp,#0x2c]
        0x000016fa:    7001        .p      STRB     r1,[r0,#0]
        0x000016fc:    f000fae2    ....    BL       read_RSSI ; 0x1cc4
        0x00001700:    3855        U8      SUBS     r0,r0,#0x55
        0x00001702:    b240        @.      SXTB     r0,r0
        0x00001704:    7030        0p      STRB     r0,[r6,#0]
        0x00001706:    f000fad7    ....    BL       read_LQI ; 0x1cb8
        0x0000170a:    7038        8p      STRB     r0,[r7,#0]
        0x0000170c:    4807        .H      LDR      r0,[pc,#28] ; [0x172c] = 0x200001c0
        0x0000170e:    3880        .8      SUBS     r0,r0,#0x80
        0x00001710:    7a00        .z      LDRB     r0,[r0,#8]
        0x00001712:    7020         p      STRB     r0,[r4,#0]
        0x00001714:    7820         x      LDRB     r0,[r4,#0]
        0x00001716:    42a8        .B      CMP      r0,r5
        0x00001718:    dc05        ..      BGT      0x1726 ; radio_getReceivedFrame + 62
        0x0000171a:    7822        "x      LDRB     r2,[r4,#0]
        0x0000171c:    4903        .I      LDR      r1,[pc,#12] ; [0x172c] = 0x200001c0
        0x0000171e:    3977        w9      SUBS     r1,r1,#0x77
        0x00001720:    9801        ..      LDR      r0,[sp,#4]
        0x00001722:    f7fefe61    ..a.    BL       __aeabi_memcpy ; 0x3e8
        0x00001726:    b005        ..      ADD      sp,sp,#0x14
        0x00001728:    bdf0        ..      POP      {r4-r7,pc}
    $d
        0x0000172a:    0000        ..      DCW    0
        0x0000172c:    200001c0    ...     DCD    536871360
    $t
    i.radio_init
    radio_init
        0x00001730:    b510        ..      PUSH     {r4,lr}
        0x00001732:    21ff        .!      MOVS     r1,#0xff
        0x00001734:    3191        .1      ADDS     r1,r1,#0x91
        0x00001736:    4811        .H      LDR      r0,[pc,#68] ; [0x177c] = 0x200000c0
        0x00001738:    f7fefeb5    ....    BL       __aeabi_memclr4 ; 0x4a6
        0x0000173c:    4910        .I      LDR      r1,[pc,#64] ; [0x1780] = 0x2c3
        0x0000173e:    4811        .H      LDR      r0,[pc,#68] ; [0x1784] = 0x200001c0
        0x00001740:    64c1        .d      STR      r1,[r0,#0x4c]
        0x00001742:    1fc9        ..      SUBS     r1,r1,#7
        0x00001744:    60c1        .`      STR      r1,[r0,#0xc]
        0x00001746:    4810        .H      LDR      r0,[pc,#64] ; [0x1788] = 0x2000006c
        0x00001748:    7800        .x      LDRB     r0,[r0,#0]
        0x0000174a:    06c2        ..      LSLS     r2,r0,#27
        0x0000174c:    0ed2        ..      LSRS     r2,r2,#27
        0x0000174e:    480f        .H      LDR      r0,[pc,#60] ; [0x178c] = 0x2000004c
        0x00001750:    7800        .x      LDRB     r0,[r0,#0]
        0x00001752:    06c1        ..      LSLS     r1,r0,#27
        0x00001754:    0ec9        ..      LSRS     r1,r1,#27
        0x00001756:    a00e        ..      ADR      r0,{pc}+0x3a ; 0x1790
        0x00001758:    f7fefda0    ....    BL       __2printf ; 0x29c
        0x0000175c:    2100        .!      MOVS     r1,#0
        0x0000175e:    4809        .H      LDR      r0,[pc,#36] ; [0x1784] = 0x200001c0
        0x00001760:    7201        .r      STRB     r1,[r0,#8]
        0x00001762:    2040        @       MOVS     r0,#0x40
        0x00001764:    4912        .I      LDR      r1,[pc,#72] ; [0x17b0] = 0xe000e100
        0x00001766:    6008        .`      STR      r0,[r1,#0]
        0x00001768:    201e        .       MOVS     r0,#0x1e
        0x0000176a:    0589        ..      LSLS     r1,r1,#22
        0x0000176c:    6148        Ha      STR      r0,[r1,#0x14]
        0x0000176e:    201f        .       MOVS     r0,#0x1f
        0x00001770:    6208        .b      STR      r0,[r1,#0x20]
        0x00001772:    2101        .!      MOVS     r1,#1
        0x00001774:    4803        .H      LDR      r0,[pc,#12] ; [0x1784] = 0x200001c0
        0x00001776:    7201        .r      STRB     r1,[r0,#8]
        0x00001778:    bd10        ..      POP      {r4,pc}
    $d
        0x0000177a:    0000        ..      DCW    0
        0x0000177c:    200000c0    ...     DCD    536871104
        0x00001780:    000002c3    ....    DCD    707
        0x00001784:    200001c0    ...     DCD    536871360
        0x00001788:    2000006c    l..     DCD    536871020
        0x0000178c:    2000004c    L..     DCD    536870988
        0x00001790:    73207872    rx s    DCD    1931507826
        0x00001794:    69747465    etti    DCD    1769239653
        0x00001798:    2520676e    ng %    DCD    622880622
        0x0000179c:    78742064    d tx    DCD    2020876388
        0x000017a0:    74657320     set    DCD    1952805664
        0x000017a4:    676e6974    ting    DCD    1735289204
        0x000017a8:    0d642520     %d.    DCD    224666912
        0x000017ac:    0000000a    ....    DCD    10
        0x000017b0:    e000e100    ....    DCD    3758153984
    $t
    i.radio_init_divider
    radio_init_divider
        0x000017b4:    b510        ..      PUSH     {r4,lr}
        0x000017b6:    4604        .F      MOV      r4,r0
        0x000017b8:    2100        .!      MOVS     r1,#0
        0x000017ba:    203f        ?       MOVS     r0,#0x3f
        0x000017bc:    f000fc60    ..`.    BL       set_DIV_supply ; 0x2080
        0x000017c0:    2004        .       MOVS     r0,#4
        0x000017c2:    f7fffeab    ....    BL       prescaler ; 0x151c
        0x000017c6:    2201        ."      MOVS     r2,#1
        0x000017c8:    4611        .F      MOV      r1,r2
        0x000017ca:    20ff        .       MOVS     r0,#0xff
        0x000017cc:    30e1        .0      ADDS     r0,r0,#0xe1
        0x000017ce:    f7fffaff    ....    BL       divProgram ; 0xdd0
        0x000017d2:    20fd        .       MOVS     r0,#0xfd
        0x000017d4:    0080        ..      LSLS     r0,r0,#2
        0x000017d6:    f000fdb7    ....    BL       set_asc_bit ; 0x2348
        0x000017da:    bd10        ..      POP      {r4,pc}
    i.radio_init_rx_MF
    radio_init_rx_MF
        0x000017dc:    b5f8        ..      PUSH     {r3-r7,lr}
        0x000017de:    4c46        FL      LDR      r4,[pc,#280] ; [0x18f8] = 0xfffc0000
        0x000017e0:    0d65        e.      LSRS     r5,r4,#21
        0x000017e2:    4846        FH      LDR      r0,[pc,#280] ; [0x18fc] = 0x20000428
        0x000017e4:    6a00        .j      LDR      r0,[r0,#0x20]
        0x000017e6:    4020         @      ANDS     r0,r0,r4
        0x000017e8:    4944        DI      LDR      r1,[pc,#272] ; [0x18fc] = 0x20000428
        0x000017ea:    6208        .b      STR      r0,[r1,#0x20]
        0x000017ec:    4608        .F      MOV      r0,r1
        0x000017ee:    6bc0        .k      LDR      r0,[r0,#0x3c]
        0x000017f0:    4028        (@      ANDS     r0,r0,r5
        0x000017f2:    63c8        .c      STR      r0,[r1,#0x3c]
        0x000017f4:    4608        .F      MOV      r0,r1
        0x000017f6:    6a00        .j      LDR      r0,[r0,#0x20]
        0x000017f8:    4941        AI      LDR      r1,[pc,#260] ; [0x1900] = 0x4050ffe0
        0x000017fa:    43a1        .C      BICS     r1,r1,r4
        0x000017fc:    4308        .C      ORRS     r0,r0,r1
        0x000017fe:    493f        ?I      LDR      r1,[pc,#252] ; [0x18fc] = 0x20000428
        0x00001800:    6208        .b      STR      r0,[r1,#0x20]
        0x00001802:    4840        @H      LDR      r0,[pc,#256] ; [0x1904] = 0x422188
        0x00001804:    6248        Hb      STR      r0,[r1,#0x24]
        0x00001806:    4840        @H      LDR      r0,[pc,#256] ; [0x1908] = 0x88040031
        0x00001808:    6288        .b      STR      r0,[r1,#0x28]
        0x0000180a:    4840        @H      LDR      r0,[pc,#256] ; [0x190c] = 0x113b4081
        0x0000180c:    62c8        .b      STR      r0,[r1,#0x2c]
        0x0000180e:    4840        @H      LDR      r0,[pc,#256] ; [0x1910] = 0x27e8102
        0x00001810:    6308        .c      STR      r0,[r1,#0x30]
        0x00001812:    4840        @H      LDR      r0,[pc,#256] ; [0x1914] = 0x3ed4844
        0x00001814:    6348        Hc      STR      r0,[r1,#0x34]
        0x00001816:    4840        @H      LDR      r0,[pc,#256] ; [0x1918] = 0x60010000
        0x00001818:    6388        .c      STR      r0,[r1,#0x38]
        0x0000181a:    4608        .F      MOV      r0,r1
        0x0000181c:    6bc0        .k      LDR      r0,[r0,#0x3c]
        0x0000181e:    493f        ?I      LDR      r1,[pc,#252] ; [0x191c] = 0xffe02e03
        0x00001820:    43a9        .C      BICS     r1,r1,r5
        0x00001822:    4308        .C      ORRS     r0,r0,r1
        0x00001824:    4935        5I      LDR      r1,[pc,#212] ; [0x18fc] = 0x20000428
        0x00001826:    63c8        .c      STR      r0,[r1,#0x3c]
        0x00001828:    20ff        .       MOVS     r0,#0xff
        0x0000182a:    30a9        .0      ADDS     r0,r0,#0xa9
        0x0000182c:    f7fffa72    ..r.    BL       clear_asc_bit ; 0xd14
        0x00001830:    20ff        .       MOVS     r0,#0xff
        0x00001832:    30aa        .0      ADDS     r0,r0,#0xaa
        0x00001834:    f000fd88    ....    BL       set_asc_bit ; 0x2348
        0x00001838:    213f        ?!      MOVS     r1,#0x3f
        0x0000183a:    4608        .F      MOV      r0,r1
        0x0000183c:    f000fcea    ....    BL       set_IF_gain_ASC ; 0x2214
        0x00001840:    2107        .!      MOVS     r1,#7
        0x00001842:    4608        .F      MOV      r0,r1
        0x00001844:    f000fd16    ....    BL       set_IF_stg3gm_ASC ; 0x2274
        0x00001848:    2100        .!      MOVS     r1,#0
        0x0000184a:    4608        .F      MOV      r0,r1
        0x0000184c:    f000fc82    ....    BL       set_IF_comparator_trim_I ; 0x2154
        0x00001850:    2100        .!      MOVS     r1,#0
        0x00001852:    4608        .F      MOV      r0,r1
        0x00001854:    f000fcae    ....    BL       set_IF_comparator_trim_Q ; 0x21b4
        0x00001858:    2000        .       MOVS     r0,#0
        0x0000185a:    f7fffa5b    ..[.    BL       clear_asc_bit ; 0xd14
        0x0000185e:    2001        .       MOVS     r0,#1
        0x00001860:    f7fffa58    ..X.    BL       clear_asc_bit ; 0xd14
        0x00001864:    2060        `       MOVS     r0,#0x60
        0x00001866:    f7fffa55    ..U.    BL       clear_asc_bit ; 0xd14
        0x0000186a:    20ff        .       MOVS     r0,#0xff
        0x0000186c:    3010        .0      ADDS     r0,r0,#0x10
        0x0000186e:    f7fffa51    ..Q.    BL       clear_asc_bit ; 0xd14
        0x00001872:    20ff        .       MOVS     r0,#0xff
        0x00001874:    30ec        .0      ADDS     r0,r0,#0xec
        0x00001876:    f7fffa4d    ..M.    BL       clear_asc_bit ; 0xd14
        0x0000187a:    2064        d       MOVS     r0,#0x64
        0x0000187c:    f7fffa4a    ..J.    BL       clear_asc_bit ; 0xd14
        0x00001880:    2065        e       MOVS     r0,#0x65
        0x00001882:    f7fffa47    ..G.    BL       clear_asc_bit ; 0xd14
        0x00001886:    2066        f       MOVS     r0,#0x66
        0x00001888:    f7fffa44    ..D.    BL       clear_asc_bit ; 0xd14
        0x0000188c:    2061        a       MOVS     r0,#0x61
        0x0000188e:    f000fd5b    ..[.    BL       set_asc_bit ; 0x2348
        0x00001892:    2000        .       MOVS     r0,#0
        0x00001894:    4922        "I      LDR      r1,[pc,#136] ; [0x1920] = 0x52380000
        0x00001896:    6008        .`      STR      r0,[r1,#0]
        0x00001898:    4822        "H      LDR      r0,[pc,#136] ; [0x1924] = 0xa00f
        0x0000189a:    4923        #I      LDR      r1,[pc,#140] ; [0x1928] = 0x523c0000
        0x0000189c:    6008        .`      STR      r0,[r1,#0]
        0x0000189e:    2067        g       MOVS     r0,#0x67
        0x000018a0:    f000fd52    ..R.    BL       set_asc_bit ; 0x2348
        0x000018a4:    260b        .&      MOVS     r6,#0xb
        0x000018a6:    2702        .'      MOVS     r7,#2
        0x000018a8:    02f0        ..      LSLS     r0,r6,#11
        0x000018aa:    01f9        ..      LSLS     r1,r7,#7
        0x000018ac:    4308        .C      ORRS     r0,r0,r1
        0x000018ae:    491f        .I      LDR      r1,[pc,#124] ; [0x192c] = 0x520c0000
        0x000018b0:    6008        .`      STR      r0,[r1,#0]
        0x000018b2:    2005        .       MOVS     r0,#5
        0x000018b4:    9000        ..      STR      r0,[sp,#0]
        0x000018b6:    491e        .I      LDR      r1,[pc,#120] ; [0x1930] = 0x52240000
        0x000018b8:    9800        ..      LDR      r0,[sp,#0]
        0x000018ba:    6008        .`      STR      r0,[r1,#0]
        0x000018bc:    20ff        .       MOVS     r0,#0xff
        0x000018be:    300e        .0      ADDS     r0,r0,#0xe
        0x000018c0:    f7fffa28    ..(.    BL       clear_asc_bit ; 0xd14
        0x000018c4:    20ff        .       MOVS     r0,#0xff
        0x000018c6:    300f        .0      ADDS     r0,r0,#0xf
        0x000018c8:    f7fffa24    ..$.    BL       clear_asc_bit ; 0xd14
        0x000018cc:    2000        .       MOVS     r0,#0
        0x000018ce:    f000fbeb    ....    BL       set_IF_LDO_voltage ; 0x20a8
        0x000018d2:    20f0        .       MOVS     r0,#0xf0
        0x000018d4:    f000fd38    ..8.    BL       set_asc_bit ; 0x2348
        0x000018d8:    205d        ]       MOVS     r0,#0x5d
        0x000018da:    00c0        ..      LSLS     r0,r0,#3
        0x000018dc:    f000fd34    ..4.    BL       set_asc_bit ; 0x2348
        0x000018e0:    4814        .H      LDR      r0,[pc,#80] ; [0x1934] = 0x2e9
        0x000018e2:    f000fd31    ..1.    BL       set_asc_bit ; 0x2348
        0x000018e6:    4813        .H      LDR      r0,[pc,#76] ; [0x1934] = 0x2e9
        0x000018e8:    1c40        @.      ADDS     r0,r0,#1
        0x000018ea:    f000fd2d    ..-.    BL       set_asc_bit ; 0x2348
        0x000018ee:    2001        .       MOVS     r0,#1
        0x000018f0:    4911        .I      LDR      r1,[pc,#68] ; [0x1938] = 0x52400000
        0x000018f2:    6008        .`      STR      r0,[r1,#0]
        0x000018f4:    bdf8        ..      POP      {r3-r7,pc}
    $d
        0x000018f6:    0000        ..      DCW    0
        0x000018f8:    fffc0000    ....    DCD    4294705152
        0x000018fc:    20000428    (..     DCD    536871976
        0x00001900:    4050ffe0    ..P@    DCD    1079050208
        0x00001904:    00422188    .!B.    DCD    4333960
        0x00001908:    88040031    1...    DCD    2281963569
        0x0000190c:    113b4081    .@;.    DCD    289095809
        0x00001910:    027e8102    ..~.    DCD    41844994
        0x00001914:    03ed4844    DH..    DCD    65882180
        0x00001918:    60010000    ...`    DCD    1610678272
        0x0000191c:    ffe02e03    ....    DCD    4292881923
        0x00001920:    52380000    ..8R    DCD    1379401728
        0x00001924:    0000a00f    ....    DCD    40975
        0x00001928:    523c0000    ..<R    DCD    1379663872
        0x0000192c:    520c0000    ...R    DCD    1376518144
        0x00001930:    52240000    ..$R    DCD    1378091008
        0x00001934:    000002e9    ....    DCD    745
        0x00001938:    52400000    ..@R    DCD    1379926016
    $t
    i.radio_init_tx
    radio_init_tx
        0x0000193c:    b500        ..      PUSH     {lr}
        0x0000193e:    207d        }       MOVS     r0,#0x7d
        0x00001940:    00c0        ..      LSLS     r0,r0,#3
        0x00001942:    f000fd01    ....    BL       set_asc_bit ; 0x2348
        0x00001946:    480c        .H      LDR      r0,[pc,#48] ; [0x1978] = 0x3e9
        0x00001948:    f000fcfe    ....    BL       set_asc_bit ; 0x2348
        0x0000194c:    480a        .H      LDR      r0,[pc,#40] ; [0x1978] = 0x3e9
        0x0000194e:    1c40        @.      ADDS     r0,r0,#1
        0x00001950:    f000fcfa    ....    BL       set_asc_bit ; 0x2348
        0x00001954:    4808        .H      LDR      r0,[pc,#32] ; [0x1978] = 0x3e9
        0x00001956:    1c80        ..      ADDS     r0,r0,#2
        0x00001958:    f000fcf6    ....    BL       set_asc_bit ; 0x2348
        0x0000195c:    2080        .       MOVS     r0,#0x80
        0x0000195e:    4907        .I      LDR      r1,[pc,#28] ; [0x197c] = 0x522c0000
        0x00001960:    6008        .`      STR      r0,[r1,#0]
        0x00001962:    207f        .       MOVS     r0,#0x7f
        0x00001964:    f000fcae    ....    BL       set_LC_current ; 0x22c4
        0x00001968:    203f        ?       MOVS     r0,#0x3f
        0x0000196a:    f000fcdb    ....    BL       set_PA_supply ; 0x2324
        0x0000196e:    2100        .!      MOVS     r1,#0
        0x00001970:    207f        .       MOVS     r0,#0x7f
        0x00001972:    f000fcc3    ....    BL       set_LO_supply ; 0x22fc
        0x00001976:    bd00        ..      POP      {pc}
    $d
        0x00001978:    000003e9    ....    DCD    1001
        0x0000197c:    522c0000    ..,R    DCD    1378615296
    $t
    i.radio_isr
    radio_isr
        0x00001980:    b5fe        ..      PUSH     {r1-r7,lr}
        0x00001982:    2001        .       MOVS     r0,#1
        0x00001984:    0780        ..      LSLS     r0,r0,#30
        0x00001986:    6904        .i      LDR      r4,[r0,#0x10]
        0x00001988:    69c5        .i      LDR      r5,[r0,#0x1c]
        0x0000198a:    f7fffa0d    ....    BL       debugpins_isr_set ; 0xda8
        0x0000198e:    f000faeb    ....    BL       sctimer_readCounter ; 0x1f68
        0x00001992:    4606        .F      MOV      r6,r0
        0x00001994:    2002        .       MOVS     r0,#2
        0x00001996:    4020         @      ANDS     r0,r0,r4
        0x00001998:    2800        .(      CMP      r0,#0
        0x0000199a:    d103        ..      BNE      0x19a4 ; radio_isr + 36
        0x0000199c:    2008        .       MOVS     r0,#8
        0x0000199e:    4020         @      ANDS     r0,r0,r4
        0x000019a0:    2800        .(      CMP      r0,#0
        0x000019a2:    d01f        ..      BEQ      0x19e4 ; radio_isr + 100
        0x000019a4:    2002        .       MOVS     r0,#2
        0x000019a6:    4020         @      ANDS     r0,r0,r4
        0x000019a8:    2800        .(      CMP      r0,#0
        0x000019aa:    d005        ..      BEQ      0x19b8 ; radio_isr + 56
        0x000019ac:    2002        .       MOVS     r0,#2
        0x000019ae:    0741        A.      LSLS     r1,r0,#29
        0x000019b0:    6188        .a      STR      r0,[r1,#0x18]
        0x000019b2:    2108        .!      MOVS     r1,#8
        0x000019b4:    4831        1H      LDR      r0,[pc,#196] ; [0x1a7c] = 0x200001c0
        0x000019b6:    7201        .r      STRB     r1,[r0,#8]
        0x000019b8:    2008        .       MOVS     r0,#8
        0x000019ba:    4020         @      ANDS     r0,r0,r4
        0x000019bc:    2800        .(      CMP      r0,#0
        0x000019be:    d005        ..      BEQ      0x19cc ; radio_isr + 76
        0x000019c0:    2008        .       MOVS     r0,#8
        0x000019c2:    06c1        ..      LSLS     r1,r0,#27
        0x000019c4:    6188        .a      STR      r0,[r1,#0x18]
        0x000019c6:    210b        .!      MOVS     r1,#0xb
        0x000019c8:    482c        ,H      LDR      r0,[pc,#176] ; [0x1a7c] = 0x200001c0
        0x000019ca:    7201        .r      STRB     r1,[r0,#8]
        0x000019cc:    482c        ,H      LDR      r0,[pc,#176] ; [0x1a80] = 0x200000c0
        0x000019ce:    6800        .h      LDR      r0,[r0,#0]
        0x000019d0:    2800        .(      CMP      r0,#0
        0x000019d2:    d007        ..      BEQ      0x19e4 ; radio_isr + 100
        0x000019d4:    482a        *H      LDR      r0,[pc,#168] ; [0x1a80] = 0x200000c0
        0x000019d6:    6801        .h      LDR      r1,[r0,#0]
        0x000019d8:    4630        0F      MOV      r0,r6
        0x000019da:    4788        .G      BLX      r1
        0x000019dc:    f7fff9da    ....    BL       debugpins_isr_clr ; 0xd94
        0x000019e0:    2001        .       MOVS     r0,#1
        0x000019e2:    bdfe        ..      POP      {r1-r7,pc}
        0x000019e4:    2004        .       MOVS     r0,#4
        0x000019e6:    4020         @      ANDS     r0,r0,r4
        0x000019e8:    2800        .(      CMP      r0,#0
        0x000019ea:    d103        ..      BNE      0x19f4 ; radio_isr + 116
        0x000019ec:    2010        .       MOVS     r0,#0x10
        0x000019ee:    4020         @      ANDS     r0,r0,r4
        0x000019f0:    2800        .(      CMP      r0,#0
        0x000019f2:    d032        2.      BEQ      0x1a5a ; radio_isr + 218
        0x000019f4:    2004        .       MOVS     r0,#4
        0x000019f6:    4020         @      ANDS     r0,r0,r4
        0x000019f8:    2800        .(      CMP      r0,#0
        0x000019fa:    d002        ..      BEQ      0x1a02 ; radio_isr + 130
        0x000019fc:    2004        .       MOVS     r0,#4
        0x000019fe:    0701        ..      LSLS     r1,r0,#28
        0x00001a00:    6188        .a      STR      r0,[r1,#0x18]
        0x00001a02:    2010        .       MOVS     r0,#0x10
        0x00001a04:    4020         @      ANDS     r0,r0,r4
        0x00001a06:    2800        .(      CMP      r0,#0
        0x00001a08:    d016        ..      BEQ      0x1a38 ; radio_isr + 184
        0x00001a0a:    2010        .       MOVS     r0,#0x10
        0x00001a0c:    0681        ..      LSLS     r1,r0,#26
        0x00001a0e:    6188        .a      STR      r0,[r1,#0x18]
        0x00001a10:    f000f942    ..B.    BL       read_IF_estimate ; 0x1c98
        0x00001a14:    9001        ..      STR      r0,[sp,#4]
        0x00001a16:    481b        .H      LDR      r0,[pc,#108] ; [0x1a84] = 0x52540000
        0x00001a18:    7800        .x      LDRB     r0,[r0,#0]
        0x00001a1a:    9000        ..      STR      r0,[sp,#0]
        0x00001a1c:    481a        .H      LDR      r0,[pc,#104] ; [0x1a88] = 0x52640000
        0x00001a1e:    8800        ..      LDRH     r0,[r0,#0]
        0x00001a20:    b207        ..      SXTH     r7,r0
        0x00001a22:    2008        .       MOVS     r0,#8
        0x00001a24:    4028        (@      ANDS     r0,r0,r5
        0x00001a26:    2800        .(      CMP      r0,#0
        0x00001a28:    d003        ..      BEQ      0x1a32 ; radio_isr + 178
        0x00001a2a:    2100        .!      MOVS     r1,#0
        0x00001a2c:    4813        .H      LDR      r0,[pc,#76] ; [0x1a7c] = 0x200001c0
        0x00001a2e:    7281        .r      STRB     r1,[r0,#0xa]
        0x00001a30:    e002        ..      B        0x1a38 ; radio_isr + 184
        0x00001a32:    2101        .!      MOVS     r1,#1
        0x00001a34:    4811        .H      LDR      r0,[pc,#68] ; [0x1a7c] = 0x200001c0
        0x00001a36:    7281        .r      STRB     r1,[r0,#0xa]
        0x00001a38:    210c        .!      MOVS     r1,#0xc
        0x00001a3a:    4810        .H      LDR      r0,[pc,#64] ; [0x1a7c] = 0x200001c0
        0x00001a3c:    7201        .r      STRB     r1,[r0,#8]
        0x00001a3e:    4810        .H      LDR      r0,[pc,#64] ; [0x1a80] = 0x200000c0
        0x00001a40:    6840        @h      LDR      r0,[r0,#4]
        0x00001a42:    2800        .(      CMP      r0,#0
        0x00001a44:    d007        ..      BEQ      0x1a56 ; radio_isr + 214
        0x00001a46:    480e        .H      LDR      r0,[pc,#56] ; [0x1a80] = 0x200000c0
        0x00001a48:    6841        Ah      LDR      r1,[r0,#4]
        0x00001a4a:    4630        0F      MOV      r0,r6
        0x00001a4c:    4788        .G      BLX      r1
        0x00001a4e:    f7fff9a1    ....    BL       debugpins_isr_clr ; 0xd94
        0x00001a52:    2001        .       MOVS     r0,#1
        0x00001a54:    e7c5        ..      B        0x19e2 ; radio_isr + 98
        0x00001a56:    bf00        ..      NOP      
        0x00001a58:    e7fe        ..      B        0x1a58 ; radio_isr + 216
        0x00001a5a:    07e0        ..      LSLS     r0,r4,#31
        0x00001a5c:    0fc0        ..      LSRS     r0,r0,#31
        0x00001a5e:    2800        .(      CMP      r0,#0
        0x00001a60:    d002        ..      BEQ      0x1a68 ; radio_isr + 232
        0x00001a62:    2001        .       MOVS     r0,#1
        0x00001a64:    0781        ..      LSLS     r1,r0,#30
        0x00001a66:    6188        .a      STR      r0,[r1,#0x18]
        0x00001a68:    2d00        .-      CMP      r5,#0
        0x00001a6a:    d002        ..      BEQ      0x1a72 ; radio_isr + 242
        0x00001a6c:    2001        .       MOVS     r0,#1
        0x00001a6e:    0780        ..      LSLS     r0,r0,#30
        0x00001a70:    6245        Eb      STR      r5,[r0,#0x24]
        0x00001a72:    f7fff98f    ....    BL       debugpins_isr_clr ; 0xd94
        0x00001a76:    2000        .       MOVS     r0,#0
        0x00001a78:    e7b3        ..      B        0x19e2 ; radio_isr + 98
    $d
        0x00001a7a:    0000        ..      DCW    0
        0x00001a7c:    200001c0    ...     DCD    536871360
        0x00001a80:    200000c0    ...     DCD    536871104
        0x00001a84:    52540000    ..TR    DCD    1381236736
        0x00001a88:    52640000    ..dR    DCD    1382285312
    $t
    i.radio_rfOn
    radio_rfOn
        0x00001a8c:    2001        .       MOVS     r0,#1
        0x00001a8e:    0780        ..      LSLS     r0,r0,#30
        0x00001a90:    6800        .h      LDR      r0,[r0,#0]
        0x00001a92:    2110        .!      MOVS     r1,#0x10
        0x00001a94:    4388        .C      BICS     r0,r0,r1
        0x00001a96:    0689        ..      LSLS     r1,r1,#26
        0x00001a98:    6008        .`      STR      r0,[r1,#0]
        0x00001a9a:    4770        pG      BX       lr
    i.radio_rxEnable
    radio_rxEnable
        0x00001a9c:    b510        ..      PUSH     {r4,lr}
        0x00001a9e:    2109        .!      MOVS     r1,#9
        0x00001aa0:    480b        .H      LDR      r0,[pc,#44] ; [0x1ad0] = 0x200001c0
        0x00001aa2:    7201        .r      STRB     r1,[r0,#8]
        0x00001aa4:    2018        .       MOVS     r0,#0x18
        0x00001aa6:    490b        .I      LDR      r1,[pc,#44] ; [0x1ad4] = 0x52280000
        0x00001aa8:    6008        .`      STR      r0,[r1,#0]
        0x00001aaa:    2001        .       MOVS     r0,#1
        0x00001aac:    490a        .I      LDR      r1,[pc,#40] ; [0x1ad8] = 0x52400000
        0x00001aae:    6008        .`      STR      r0,[r1,#0]
        0x00001ab0:    4807        .H      LDR      r0,[pc,#28] ; [0x1ad0] = 0x200001c0
        0x00001ab2:    3878        x8      SUBS     r0,r0,#0x78
        0x00001ab4:    2141        A!      MOVS     r1,#0x41
        0x00001ab6:    0609        ..      LSLS     r1,r1,#24
        0x00001ab8:    6148        Ha      STR      r0,[r1,#0x14]
        0x00001aba:    2010        .       MOVS     r0,#0x10
        0x00001abc:    0681        ..      LSLS     r1,r0,#26
        0x00001abe:    6008        .`      STR      r0,[r1,#0]
        0x00001ac0:    f7fff97c    ..|.    BL       debugpins_radio_set ; 0xdbc
        0x00001ac4:    f7fffb44    ..D.    BL       leds_radio_on ; 0x1150
        0x00001ac8:    210a        .!      MOVS     r1,#0xa
        0x00001aca:    4801        .H      LDR      r0,[pc,#4] ; [0x1ad0] = 0x200001c0
        0x00001acc:    7201        .r      STRB     r1,[r0,#8]
        0x00001ace:    bd10        ..      POP      {r4,pc}
    $d
        0x00001ad0:    200001c0    ...     DCD    536871360
        0x00001ad4:    52280000    ..(R    DCD    1378353152
        0x00001ad8:    52400000    ..@R    DCD    1379926016
    $t
    i.radio_rxNow
    radio_rxNow
        0x00001adc:    2001        .       MOVS     r0,#1
        0x00001ade:    0340        @.      LSLS     r0,r0,#13
        0x00001ae0:    4904        .I      LDR      r1,[pc,#16] ; [0x1af4] = 0x52100000
        0x00001ae2:    6008        .`      STR      r0,[r1,#0]
        0x00001ae4:    2005        .       MOVS     r0,#5
        0x00001ae6:    02c0        ..      LSLS     r0,r0,#11
        0x00001ae8:    6008        .`      STR      r0,[r1,#0]
        0x00001aea:    2004        .       MOVS     r0,#4
        0x00001aec:    0701        ..      LSLS     r1,r0,#28
        0x00001aee:    6008        .`      STR      r0,[r1,#0]
        0x00001af0:    4770        pG      BX       lr
    $d
        0x00001af2:    0000        ..      DCW    0
        0x00001af4:    52100000    ...R    DCD    1376780288
    $t
    i.radio_setEndFrameCb
    radio_setEndFrameCb
        0x00001af8:    4901        .I      LDR      r1,[pc,#4] ; [0x1b00] = 0x200000c0
        0x00001afa:    6048        H`      STR      r0,[r1,#4]
        0x00001afc:    4770        pG      BX       lr
    $d
        0x00001afe:    0000        ..      DCW    0
        0x00001b00:    200000c0    ...     DCD    536871104
    $t
    i.radio_setFrequency
    radio_setFrequency
        0x00001b04:    b570        p.      PUSH     {r4-r6,lr}
        0x00001b06:    4605        .F      MOV      r5,r0
        0x00001b08:    460c        .F      MOV      r4,r1
        0x00001b0a:    2102        .!      MOVS     r1,#2
        0x00001b0c:    480c        .H      LDR      r0,[pc,#48] ; [0x1b40] = 0x200001c0
        0x00001b0e:    7201        .r      STRB     r1,[r0,#8]
        0x00001b10:    210b        .!      MOVS     r1,#0xb
        0x00001b12:    7241        Ar      STRB     r1,[r0,#9]
        0x00001b14:    2c01        .,      CMP      r4,#1
        0x00001b16:    d002        ..      BEQ      0x1b1e ; radio_setFrequency + 26
        0x00001b18:    2c02        .,      CMP      r4,#2
        0x00001b1a:    d10a        ..      BNE      0x1b32 ; radio_setFrequency + 46
        0x00001b1c:    e004        ..      B        0x1b28 ; radio_setFrequency + 36
        0x00001b1e:    4908        .I      LDR      r1,[pc,#32] ; [0x1b40] = 0x200001c0
        0x00001b20:    7a48        Hz      LDRB     r0,[r1,#9]
        0x00001b22:    f000fa43    ..C.    BL       setFrequencyTX ; 0x1fac
        0x00001b26:    e005        ..      B        0x1b34 ; radio_setFrequency + 48
        0x00001b28:    4905        .I      LDR      r1,[pc,#20] ; [0x1b40] = 0x200001c0
        0x00001b2a:    7a48        Hz      LDRB     r0,[r1,#9]
        0x00001b2c:    f000fa20    .. .    BL       setFrequencyRX ; 0x1f70
        0x00001b30:    e000        ..      B        0x1b34 ; radio_setFrequency + 48
        0x00001b32:    bf00        ..      NOP      
        0x00001b34:    bf00        ..      NOP      
        0x00001b36:    2103        .!      MOVS     r1,#3
        0x00001b38:    4801        .H      LDR      r0,[pc,#4] ; [0x1b40] = 0x200001c0
        0x00001b3a:    7201        .r      STRB     r1,[r0,#8]
        0x00001b3c:    bd70        p.      POP      {r4-r6,pc}
    $d
        0x00001b3e:    0000        ..      DCW    0
        0x00001b40:    200001c0    ...     DCD    536871360
    $t
    i.radio_setStartFrameCb
    radio_setStartFrameCb
        0x00001b44:    4901        .I      LDR      r1,[pc,#4] ; [0x1b4c] = 0x200000c0
        0x00001b46:    6008        .`      STR      r0,[r1,#0]
        0x00001b48:    4770        pG      BX       lr
    $d
        0x00001b4a:    0000        ..      DCW    0
        0x00001b4c:    200000c0    ...     DCD    536871104
    $t
    i.rawchips_32_isr
    rawchips_32_isr
        0x00001b50:    b570        p.      PUSH     {r4-r6,lr}
        0x00001b52:    4824        $H      LDR      r0,[pc,#144] ; [0x1be4] = 0x52440000
        0x00001b54:    6805        .h      LDR      r5,[r0,#0]
        0x00001b56:    4824        $H      LDR      r0,[pc,#144] ; [0x1be8] = 0x52480000
        0x00001b58:    6806        .h      LDR      r6,[r0,#0]
        0x00001b5a:    0430        0.      LSLS     r0,r6,#16
        0x00001b5c:    1940        @.      ADDS     r0,r0,r5
        0x00001b5e:    4923        #I      LDR      r1,[pc,#140] ; [0x1bec] = 0x20000004
        0x00001b60:    6809        .h      LDR      r1,[r1,#0]
        0x00001b62:    0089        ..      LSLS     r1,r1,#2
        0x00001b64:    4a22        "J      LDR      r2,[pc,#136] ; [0x1bf0] = 0x20000250
        0x00001b66:    5050        PP      STR      r0,[r2,r1]
        0x00001b68:    4820         H      LDR      r0,[pc,#128] ; [0x1bec] = 0x20000004
        0x00001b6a:    6800        .h      LDR      r0,[r0,#0]
        0x00001b6c:    1c40        @.      ADDS     r0,r0,#1
        0x00001b6e:    491f        .I      LDR      r1,[pc,#124] ; [0x1bec] = 0x20000004
        0x00001b70:    6008        .`      STR      r0,[r1,#0]
        0x00001b72:    4820         H      LDR      r0,[pc,#128] ; [0x1bf4] = 0x20000010
        0x00001b74:    6800        .h      LDR      r0,[r0,#0]
        0x00001b76:    2120         !      MOVS     r1,#0x20
        0x00001b78:    4308        .C      ORRS     r0,r0,r1
        0x00001b7a:    491e        .I      LDR      r1,[pc,#120] ; [0x1bf4] = 0x20000010
        0x00001b7c:    6008        .`      STR      r0,[r1,#0]
        0x00001b7e:    4608        .F      MOV      r0,r1
        0x00001b80:    6800        .h      LDR      r0,[r0,#0]
        0x00001b82:    491d        .I      LDR      r1,[pc,#116] ; [0x1bf8] = 0x520c0000
        0x00001b84:    6008        .`      STR      r0,[r1,#0]
        0x00001b86:    481b        .H      LDR      r0,[pc,#108] ; [0x1bf4] = 0x20000010
        0x00001b88:    6800        .h      LDR      r0,[r0,#0]
        0x00001b8a:    2120         !      MOVS     r1,#0x20
        0x00001b8c:    4388        .C      BICS     r0,r0,r1
        0x00001b8e:    4919        .I      LDR      r1,[pc,#100] ; [0x1bf4] = 0x20000010
        0x00001b90:    6008        .`      STR      r0,[r1,#0]
        0x00001b92:    4608        .F      MOV      r0,r1
        0x00001b94:    6800        .h      LDR      r0,[r0,#0]
        0x00001b96:    4918        .I      LDR      r1,[pc,#96] ; [0x1bf8] = 0x520c0000
        0x00001b98:    6008        .`      STR      r0,[r1,#0]
        0x00001b9a:    4814        .H      LDR      r0,[pc,#80] ; [0x1bec] = 0x20000004
        0x00001b9c:    6800        .h      LDR      r0,[r0,#0]
        0x00001b9e:    280a        .(      CMP      r0,#0xa
        0x00001ba0:    d11e        ..      BNE      0x1be0 ; rawchips_32_isr + 144
        0x00001ba2:    2401        .$      MOVS     r4,#1
        0x00001ba4:    e006        ..      B        0x1bb4 ; rawchips_32_isr + 100
        0x00001ba6:    00a0        ..      LSLS     r0,r4,#2
        0x00001ba8:    4a11        .J      LDR      r2,[pc,#68] ; [0x1bf0] = 0x20000250
        0x00001baa:    5811        .X      LDR      r1,[r2,r0]
        0x00001bac:    a013        ..      ADR      r0,{pc}+0x50 ; 0x1bfc
        0x00001bae:    f7fefb75    ..u.    BL       __2printf ; 0x29c
        0x00001bb2:    1c64        d.      ADDS     r4,r4,#1
        0x00001bb4:    2c0a        .,      CMP      r4,#0xa
        0x00001bb6:    d3f6        ..      BCC      0x1ba6 ; rawchips_32_isr + 86
        0x00001bb8:    20ff        .       MOVS     r0,#0xff
        0x00001bba:    3001        .0      ADDS     r0,#1
        0x00001bbc:    4911        .I      LDR      r1,[pc,#68] ; [0x1c04] = 0xe000e180
        0x00001bbe:    6008        .`      STR      r0,[r1,#0]
        0x00001bc0:    0040        @.      LSLS     r0,r0,#1
        0x00001bc2:    4910        .I      LDR      r1,[pc,#64] ; [0x1c04] = 0xe000e180
        0x00001bc4:    3980        .9      SUBS     r1,r1,#0x80
        0x00001bc6:    6008        .`      STR      r0,[r1,#0]
        0x00001bc8:    2000        .       MOVS     r0,#0
        0x00001bca:    4908        .I      LDR      r1,[pc,#32] ; [0x1bec] = 0x20000004
        0x00001bcc:    6008        .`      STR      r0,[r1,#0]
        0x00001bce:    2400        .$      MOVS     r4,#0
        0x00001bd0:    e000        ..      B        0x1bd4 ; rawchips_32_isr + 132
        0x00001bd2:    1c64        d.      ADDS     r4,r4,#1
        0x00001bd4:    480c        .H      LDR      r0,[pc,#48] ; [0x1c08] = 0x2710
        0x00001bd6:    4284        .B      CMP      r4,r0
        0x00001bd8:    d3fb        ..      BCC      0x1bd2 ; rawchips_32_isr + 130
        0x00001bda:    480c        .H      LDR      r0,[pc,#48] ; [0x1c0c] = 0x5fa0004
        0x00001bdc:    490c        .I      LDR      r1,[pc,#48] ; [0x1c10] = 0xe000ed00
        0x00001bde:    60c8        .`      STR      r0,[r1,#0xc]
        0x00001be0:    bd70        p.      POP      {r4-r6,pc}
    $d
        0x00001be2:    0000        ..      DCW    0
        0x00001be4:    52440000    ..DR    DCD    1380188160
        0x00001be8:    52480000    ..HR    DCD    1380450304
        0x00001bec:    20000004    ...     DCD    536870916
        0x00001bf0:    20000250    P..     DCD    536871504
        0x00001bf4:    20000010    ...     DCD    536870928
        0x00001bf8:    520c0000    ...R    DCD    1376518144
        0x00001bfc:    0a0d5825    %X..    DCD    168646693
        0x00001c00:    00000000    ....    DCD    0
        0x00001c04:    e000e180    ....    DCD    3758154112
        0x00001c08:    00002710    .'..    DCD    10000
        0x00001c0c:    05fa0004    ....    DCD    100270084
        0x00001c10:    e000ed00    ....    DCD    3758157056
    $t
    i.rawchips_startval_isr
    rawchips_startval_isr
        0x00001c14:    b510        ..      PUSH     {r4,lr}
        0x00001c16:    4a18        .J      LDR      r2,[pc,#96] ; [0x1c78] = 0x20000010
        0x00001c18:    6812        .h      LDR      r2,[r2,#0]
        0x00001c1a:    2360        `#      MOVS     r3,#0x60
        0x00001c1c:    431a        .C      ORRS     r2,r2,r3
        0x00001c1e:    4b16        .K      LDR      r3,[pc,#88] ; [0x1c78] = 0x20000010
        0x00001c20:    601a        .`      STR      r2,[r3,#0]
        0x00001c22:    461a        .F      MOV      r2,r3
        0x00001c24:    6812        .h      LDR      r2,[r2,#0]
        0x00001c26:    4b15        .K      LDR      r3,[pc,#84] ; [0x1c7c] = 0x520c0000
        0x00001c28:    601a        .`      STR      r2,[r3,#0]
        0x00001c2a:    4a13        .J      LDR      r2,[pc,#76] ; [0x1c78] = 0x20000010
        0x00001c2c:    6812        .h      LDR      r2,[r2,#0]
        0x00001c2e:    2360        `#      MOVS     r3,#0x60
        0x00001c30:    439a        .C      BICS     r2,r2,r3
        0x00001c32:    4b11        .K      LDR      r3,[pc,#68] ; [0x1c78] = 0x20000010
        0x00001c34:    601a        .`      STR      r2,[r3,#0]
        0x00001c36:    461a        .F      MOV      r2,r3
        0x00001c38:    6812        .h      LDR      r2,[r2,#0]
        0x00001c3a:    4b10        .K      LDR      r3,[pc,#64] ; [0x1c7c] = 0x520c0000
        0x00001c3c:    601a        .`      STR      r2,[r3,#0]
        0x00001c3e:    2201        ."      MOVS     r2,#1
        0x00001c40:    0252        R.      LSLS     r2,r2,#9
        0x00001c42:    4b0f        .K      LDR      r3,[pc,#60] ; [0x1c80] = 0xe000e100
        0x00001c44:    601a        .`      STR      r2,[r3,#0]
        0x00001c46:    1052        R.      ASRS     r2,r2,#1
        0x00001c48:    4b0d        .K      LDR      r3,[pc,#52] ; [0x1c80] = 0xe000e100
        0x00001c4a:    3380        .3      ADDS     r3,r3,#0x80
        0x00001c4c:    601a        .`      STR      r2,[r3,#0]
        0x00001c4e:    0052        R.      LSLS     r2,r2,#1
        0x00001c50:    4b0c        .K      LDR      r3,[pc,#48] ; [0x1c84] = 0xe000e280
        0x00001c52:    601a        .`      STR      r2,[r3,#0]
        0x00001c54:    4a0c        .J      LDR      r2,[pc,#48] ; [0x1c88] = 0x52440000
        0x00001c56:    6810        .h      LDR      r0,[r2,#0]
        0x00001c58:    4a0c        .J      LDR      r2,[pc,#48] ; [0x1c8c] = 0x52480000
        0x00001c5a:    6811        .h      LDR      r1,[r2,#0]
        0x00001c5c:    040a        ..      LSLS     r2,r1,#16
        0x00001c5e:    1812        ..      ADDS     r2,r2,r0
        0x00001c60:    4b0b        .K      LDR      r3,[pc,#44] ; [0x1c90] = 0x20000004
        0x00001c62:    681b        .h      LDR      r3,[r3,#0]
        0x00001c64:    009b        ..      LSLS     r3,r3,#2
        0x00001c66:    4c0b        .L      LDR      r4,[pc,#44] ; [0x1c94] = 0x20000250
        0x00001c68:    50e2        .P      STR      r2,[r4,r3]
        0x00001c6a:    4a09        .J      LDR      r2,[pc,#36] ; [0x1c90] = 0x20000004
        0x00001c6c:    6812        .h      LDR      r2,[r2,#0]
        0x00001c6e:    1c52        R.      ADDS     r2,r2,#1
        0x00001c70:    4b07        .K      LDR      r3,[pc,#28] ; [0x1c90] = 0x20000004
        0x00001c72:    601a        .`      STR      r2,[r3,#0]
        0x00001c74:    bd10        ..      POP      {r4,pc}
    $d
        0x00001c76:    0000        ..      DCW    0
        0x00001c78:    20000010    ...     DCD    536870928
        0x00001c7c:    520c0000    ...R    DCD    1376518144
        0x00001c80:    e000e100    ....    DCD    3758153984
        0x00001c84:    e000e280    ....    DCD    3758154368
        0x00001c88:    52440000    ..DR    DCD    1380188160
        0x00001c8c:    52480000    ..HR    DCD    1380450304
        0x00001c90:    20000004    ...     DCD    536870916
        0x00001c94:    20000250    P..     DCD    536871504
    $t
    i.read_IF_estimate
    read_IF_estimate
        0x00001c98:    4806        .H      LDR      r0,[pc,#24] ; [0x1cb4] = 0x52400000
        0x00001c9a:    6800        .h      LDR      r0,[r0,#0]
        0x00001c9c:    2101        .!      MOVS     r1,#1
        0x00001c9e:    0289        ..      LSLS     r1,r1,#10
        0x00001ca0:    4008        .@      ANDS     r0,r0,r1
        0x00001ca2:    2800        .(      CMP      r0,#0
        0x00001ca4:    d004        ..      BEQ      0x1cb0 ; read_IF_estimate + 24
        0x00001ca6:    4803        .H      LDR      r0,[pc,#12] ; [0x1cb4] = 0x52400000
        0x00001ca8:    8800        ..      LDRH     r0,[r0,#0]
        0x00001caa:    0580        ..      LSLS     r0,r0,#22
        0x00001cac:    0d80        ..      LSRS     r0,r0,#22
        0x00001cae:    4770        pG      BX       lr
        0x00001cb0:    2000        .       MOVS     r0,#0
        0x00001cb2:    e7fc        ..      B        0x1cae ; read_IF_estimate + 22
    $d
        0x00001cb4:    52400000    ..@R    DCD    1379926016
    $t
    i.read_LQI
    read_LQI
        0x00001cb8:    4801        .H      LDR      r0,[pc,#4] ; [0x1cc0] = 0x52540000
        0x00001cba:    7800        .x      LDRB     r0,[r0,#0]
        0x00001cbc:    4770        pG      BX       lr
    $d
        0x00001cbe:    0000        ..      DCW    0
        0x00001cc0:    52540000    ..TR    DCD    1381236736
    $t
    i.read_RSSI
    read_RSSI
        0x00001cc4:    4802        .H      LDR      r0,[pc,#8] ; [0x1cd0] = 0x523c0000
        0x00001cc6:    7800        .x      LDRB     r0,[r0,#0]
        0x00001cc8:    0700        ..      LSLS     r0,r0,#28
        0x00001cca:    0f00        ..      LSRS     r0,r0,#28
        0x00001ccc:    4770        pG      BX       lr
    $d
        0x00001cce:    0000        ..      DCW    0
        0x00001cd0:    523c0000    ..<R    DCD    1379663872
    $t
    i.reverse
    reverse
        0x00001cd4:    4913        .I      LDR      r1,[pc,#76] ; [0x1d24] = 0x55555555
        0x00001cd6:    4001        .@      ANDS     r1,r1,r0
        0x00001cd8:    0049        I.      LSLS     r1,r1,#1
        0x00001cda:    0842        B.      LSRS     r2,r0,#1
        0x00001cdc:    4b11        .K      LDR      r3,[pc,#68] ; [0x1d24] = 0x55555555
        0x00001cde:    401a        .@      ANDS     r2,r2,r3
        0x00001ce0:    4311        .C      ORRS     r1,r1,r2
        0x00001ce2:    4608        .F      MOV      r0,r1
        0x00001ce4:    4910        .I      LDR      r1,[pc,#64] ; [0x1d28] = 0x33333333
        0x00001ce6:    4001        .@      ANDS     r1,r1,r0
        0x00001ce8:    0089        ..      LSLS     r1,r1,#2
        0x00001cea:    0882        ..      LSRS     r2,r0,#2
        0x00001cec:    4b0e        .K      LDR      r3,[pc,#56] ; [0x1d28] = 0x33333333
        0x00001cee:    401a        .@      ANDS     r2,r2,r3
        0x00001cf0:    4311        .C      ORRS     r1,r1,r2
        0x00001cf2:    4608        .F      MOV      r0,r1
        0x00001cf4:    490d        .I      LDR      r1,[pc,#52] ; [0x1d2c] = 0xf0f0f0f
        0x00001cf6:    4001        .@      ANDS     r1,r1,r0
        0x00001cf8:    0109        ..      LSLS     r1,r1,#4
        0x00001cfa:    0902        ..      LSRS     r2,r0,#4
        0x00001cfc:    4b0b        .K      LDR      r3,[pc,#44] ; [0x1d2c] = 0xf0f0f0f
        0x00001cfe:    401a        .@      ANDS     r2,r2,r3
        0x00001d00:    4311        .C      ORRS     r1,r1,r2
        0x00001d02:    4608        .F      MOV      r0,r1
        0x00001d04:    0601        ..      LSLS     r1,r0,#24
        0x00001d06:    22ff        ."      MOVS     r2,#0xff
        0x00001d08:    0212        ..      LSLS     r2,r2,#8
        0x00001d0a:    4002        .@      ANDS     r2,r2,r0
        0x00001d0c:    0212        ..      LSLS     r2,r2,#8
        0x00001d0e:    4311        .C      ORRS     r1,r1,r2
        0x00001d10:    0a02        ..      LSRS     r2,r0,#8
        0x00001d12:    23ff        .#      MOVS     r3,#0xff
        0x00001d14:    021b        ..      LSLS     r3,r3,#8
        0x00001d16:    401a        .@      ANDS     r2,r2,r3
        0x00001d18:    4311        .C      ORRS     r1,r1,r2
        0x00001d1a:    0e02        ..      LSRS     r2,r0,#24
        0x00001d1c:    4311        .C      ORRS     r1,r1,r2
        0x00001d1e:    4608        .F      MOV      r0,r1
        0x00001d20:    4770        pG      BX       lr
    $d
        0x00001d22:    0000        ..      DCW    0
        0x00001d24:    55555555    UUUU    DCD    1431655765
        0x00001d28:    33333333    3333    DCD    858993459
        0x00001d2c:    0f0f0f0f    ....    DCD    252645135
    $t
    i.scm3c_hw_interface_get_HF_CLOCK_coarse
    scm3c_hw_interface_get_HF_CLOCK_coarse
        0x00001d30:    4801        .H      LDR      r0,[pc,#4] ; [0x1d38] = 0x200004a8
        0x00001d32:    6b00        .k      LDR      r0,[r0,#0x30]
        0x00001d34:    4770        pG      BX       lr
    $d
        0x00001d36:    0000        ..      DCW    0
        0x00001d38:    200004a8    ...     DCD    536872104
    $t
    i.scm3c_hw_interface_get_HF_CLOCK_fine
    scm3c_hw_interface_get_HF_CLOCK_fine
        0x00001d3c:    4801        .H      LDR      r0,[pc,#4] ; [0x1d44] = 0x200004a8
        0x00001d3e:    6ac0        .j      LDR      r0,[r0,#0x2c]
        0x00001d40:    4770        pG      BX       lr
    $d
        0x00001d42:    0000        ..      DCW    0
        0x00001d44:    200004a8    ...     DCD    536872104
    $t
    i.scm3c_hw_interface_get_IF_clk_target
    scm3c_hw_interface_get_IF_clk_target
        0x00001d48:    4801        .H      LDR      r0,[pc,#4] ; [0x1d50] = 0x200004a8
        0x00001d4a:    6c00        .l      LDR      r0,[r0,#0x40]
        0x00001d4c:    4770        pG      BX       lr
    $d
        0x00001d4e:    0000        ..      DCW    0
        0x00001d50:    200004a8    ...     DCD    536872104
    $t
    i.scm3c_hw_interface_get_IF_coarse
    scm3c_hw_interface_get_IF_coarse
        0x00001d54:    4801        .H      LDR      r0,[pc,#4] ; [0x1d5c] = 0x200004a8
        0x00001d56:    6c40        @l      LDR      r0,[r0,#0x44]
        0x00001d58:    4770        pG      BX       lr
    $d
        0x00001d5a:    0000        ..      DCW    0
        0x00001d5c:    200004a8    ...     DCD    536872104
    $t
    i.scm3c_hw_interface_get_IF_fine
    scm3c_hw_interface_get_IF_fine
        0x00001d60:    4801        .H      LDR      r0,[pc,#4] ; [0x1d68] = 0x200004a8
        0x00001d62:    6c80        .l      LDR      r0,[r0,#0x48]
        0x00001d64:    4770        pG      BX       lr
    $d
        0x00001d66:    0000        ..      DCW    0
        0x00001d68:    200004a8    ...     DCD    536872104
    $t
    i.scm3c_hw_interface_get_RC2M_coarse
    scm3c_hw_interface_get_RC2M_coarse
        0x00001d6c:    4801        .H      LDR      r0,[pc,#4] ; [0x1d74] = 0x200004a8
        0x00001d6e:    6b40        @k      LDR      r0,[r0,#0x34]
        0x00001d70:    4770        pG      BX       lr
    $d
        0x00001d72:    0000        ..      DCW    0
        0x00001d74:    200004a8    ...     DCD    536872104
    $t
    i.scm3c_hw_interface_get_RC2M_fine
    scm3c_hw_interface_get_RC2M_fine
        0x00001d78:    4801        .H      LDR      r0,[pc,#4] ; [0x1d80] = 0x200004a8
        0x00001d7a:    6b80        .k      LDR      r0,[r0,#0x38]
        0x00001d7c:    4770        pG      BX       lr
    $d
        0x00001d7e:    0000        ..      DCW    0
        0x00001d80:    200004a8    ...     DCD    536872104
    $t
    i.scm3c_hw_interface_get_RC2M_superfine
    scm3c_hw_interface_get_RC2M_superfine
        0x00001d84:    4801        .H      LDR      r0,[pc,#4] ; [0x1d8c] = 0x200004a8
        0x00001d86:    6bc0        .k      LDR      r0,[r0,#0x3c]
        0x00001d88:    4770        pG      BX       lr
    $d
        0x00001d8a:    0000        ..      DCW    0
        0x00001d8c:    200004a8    ...     DCD    536872104
    $t
    i.scm3c_hw_interface_init
    scm3c_hw_interface_init
        0x00001d90:    b510        ..      PUSH     {r4,lr}
        0x00001d92:    21cc        .!      MOVS     r1,#0xcc
        0x00001d94:    480c        .H      LDR      r0,[pc,#48] ; [0x1dc8] = 0x20000428
        0x00001d96:    f7fefb86    ....    BL       __aeabi_memclr4 ; 0x4a6
        0x00001d9a:    2111        .!      MOVS     r1,#0x11
        0x00001d9c:    480a        .H      LDR      r0,[pc,#40] ; [0x1dc8] = 0x20000428
        0x00001d9e:    3080        .0      ADDS     r0,r0,#0x80
        0x00001da0:    62c1        .b      STR      r1,[r0,#0x2c]
        0x00001da2:    2103        .!      MOVS     r1,#3
        0x00001da4:    6301        .c      STR      r1,[r0,#0x30]
        0x00001da6:    2115        .!      MOVS     r1,#0x15
        0x00001da8:    6341        Ac      STR      r1,[r0,#0x34]
        0x00001daa:    210f        .!      MOVS     r1,#0xf
        0x00001dac:    6381        .c      STR      r1,[r0,#0x38]
        0x00001dae:    63c1        .c      STR      r1,[r0,#0x3c]
        0x00001db0:    4906        .I      LDR      r1,[pc,#24] ; [0x1dcc] = 0x186a00
        0x00001db2:    6401        .d      STR      r1,[r0,#0x40]
        0x00001db4:    2116        .!      MOVS     r1,#0x16
        0x00001db6:    6441        Ad      STR      r1,[r0,#0x44]
        0x00001db8:    2112        .!      MOVS     r1,#0x12
        0x00001dba:    6481        .d      STR      r1,[r0,#0x48]
        0x00001dbc:    2214        ."      MOVS     r2,#0x14
        0x00001dbe:    4904        .I      LDR      r1,[pc,#16] ; [0x1dd0] = 0x2484
        0x00001dc0:    3018        .0      ADDS     r0,r0,#0x18
        0x00001dc2:    f7fef9bb    ....    BL       __aeabi_memcpy4 ; 0x13c
        0x00001dc6:    bd10        ..      POP      {r4,pc}
    $d
        0x00001dc8:    20000428    (..     DCD    536871976
        0x00001dcc:    00186a00    .j..    DCD    1600000
        0x00001dd0:    00002484    .$..    DCD    9348
    $t
    i.scm3c_hw_interface_set_HF_CLOCK_coarse
    scm3c_hw_interface_set_HF_CLOCK_coarse
        0x00001dd4:    4901        .I      LDR      r1,[pc,#4] ; [0x1ddc] = 0x200004a8
        0x00001dd6:    6308        .c      STR      r0,[r1,#0x30]
        0x00001dd8:    4770        pG      BX       lr
    $d
        0x00001dda:    0000        ..      DCW    0
        0x00001ddc:    200004a8    ...     DCD    536872104
    $t
    i.scm3c_hw_interface_set_HF_CLOCK_fine
    scm3c_hw_interface_set_HF_CLOCK_fine
        0x00001de0:    4901        .I      LDR      r1,[pc,#4] ; [0x1de8] = 0x200004a8
        0x00001de2:    62c8        .b      STR      r0,[r1,#0x2c]
        0x00001de4:    4770        pG      BX       lr
    $d
        0x00001de6:    0000        ..      DCW    0
        0x00001de8:    200004a8    ...     DCD    536872104
    $t
    i.scm3c_hw_interface_set_IF_coarse
    scm3c_hw_interface_set_IF_coarse
        0x00001dec:    4901        .I      LDR      r1,[pc,#4] ; [0x1df4] = 0x200004a8
        0x00001dee:    6448        Hd      STR      r0,[r1,#0x44]
        0x00001df0:    4770        pG      BX       lr
    $d
        0x00001df2:    0000        ..      DCW    0
        0x00001df4:    200004a8    ...     DCD    536872104
    $t
    i.scm3c_hw_interface_set_IF_fine
    scm3c_hw_interface_set_IF_fine
        0x00001df8:    4901        .I      LDR      r1,[pc,#4] ; [0x1e00] = 0x200004a8
        0x00001dfa:    6488        .d      STR      r0,[r1,#0x48]
        0x00001dfc:    4770        pG      BX       lr
    $d
        0x00001dfe:    0000        ..      DCW    0
        0x00001e00:    200004a8    ...     DCD    536872104
    $t
    i.scm3c_hw_interface_set_RC2M_coarse
    scm3c_hw_interface_set_RC2M_coarse
        0x00001e04:    4901        .I      LDR      r1,[pc,#4] ; [0x1e0c] = 0x200004a8
        0x00001e06:    6348        Hc      STR      r0,[r1,#0x34]
        0x00001e08:    4770        pG      BX       lr
    $d
        0x00001e0a:    0000        ..      DCW    0
        0x00001e0c:    200004a8    ...     DCD    536872104
    $t
    i.scm3c_hw_interface_set_RC2M_fine
    scm3c_hw_interface_set_RC2M_fine
        0x00001e10:    4901        .I      LDR      r1,[pc,#4] ; [0x1e18] = 0x200004a8
        0x00001e12:    6388        .c      STR      r0,[r1,#0x38]
        0x00001e14:    4770        pG      BX       lr
    $d
        0x00001e16:    0000        ..      DCW    0
        0x00001e18:    200004a8    ...     DCD    536872104
    $t
    i.scm3c_hw_interface_set_RC2M_superfine
    scm3c_hw_interface_set_RC2M_superfine
        0x00001e1c:    4901        .I      LDR      r1,[pc,#4] ; [0x1e24] = 0x200004a8
        0x00001e1e:    63c8        .c      STR      r0,[r1,#0x3c]
        0x00001e20:    4770        pG      BX       lr
    $d
        0x00001e22:    0000        ..      DCW    0
        0x00001e24:    200004a8    ...     DCD    536872104
    $t
    i.sctimer_init
    sctimer_init
        0x00001e28:    4806        .H      LDR      r0,[pc,#24] ; [0x1e44] = 0x200003f8
        0x00001e2a:    2100        .!      MOVS     r1,#0
        0x00001e2c:    6001        .`      STR      r1,[r0,#0]
        0x00001e2e:    6041        A`      STR      r1,[r0,#4]
        0x00001e30:    6081        .`      STR      r1,[r0,#8]
        0x00001e32:    60c1        .`      STR      r1,[r0,#0xc]
        0x00001e34:    1e48        H.      SUBS     r0,r1,#1
        0x00001e36:    2121        !!      MOVS     r1,#0x21
        0x00001e38:    0649        I.      LSLS     r1,r1,#25
        0x00001e3a:    6088        .`      STR      r0,[r1,#8]
        0x00001e3c:    2007        .       MOVS     r0,#7
        0x00001e3e:    6008        .`      STR      r0,[r1,#0]
        0x00001e40:    4770        pG      BX       lr
    $d
        0x00001e42:    0000        ..      DCW    0
        0x00001e44:    200003f8    ...     DCD    536871928
    $t
    i.sctimer_isr
    sctimer_isr
        0x00001e48:    b510        ..      PUSH     {r4,lr}
        0x00001e4a:    f7feffad    ....    BL       debugpins_isr_set ; 0xda8
        0x00001e4e:    4844        DH      LDR      r0,[pc,#272] ; [0x1f60] = 0x42000040
        0x00001e50:    6b04        .k      LDR      r4,[r0,#0x30]
        0x00001e52:    2004        .       MOVS     r0,#4
        0x00001e54:    4020         @      ANDS     r0,r0,r4
        0x00001e56:    2800        .(      CMP      r0,#0
        0x00001e58:    d10b        ..      BNE      0x1e72 ; sctimer_isr + 42
        0x00001e5a:    2008        .       MOVS     r0,#8
        0x00001e5c:    4020         @      ANDS     r0,r0,r4
        0x00001e5e:    2800        .(      CMP      r0,#0
        0x00001e60:    d107        ..      BNE      0x1e72 ; sctimer_isr + 42
        0x00001e62:    2010        .       MOVS     r0,#0x10
        0x00001e64:    4020         @      ANDS     r0,r0,r4
        0x00001e66:    2800        .(      CMP      r0,#0
        0x00001e68:    d103        ..      BNE      0x1e72 ; sctimer_isr + 42
        0x00001e6a:    2020                MOVS     r0,#0x20
        0x00001e6c:    4020         @      ANDS     r0,r0,r4
        0x00001e6e:    2800        .(      CMP      r0,#0
        0x00001e70:    d029        ).      BEQ      0x1ec6 ; sctimer_isr + 126
        0x00001e72:    483c        <H      LDR      r0,[pc,#240] ; [0x1f64] = 0x200003f8
        0x00001e74:    6840        @h      LDR      r0,[r0,#4]
        0x00001e76:    2800        .(      CMP      r0,#0
        0x00001e78:    d06b        k.      BEQ      0x1f52 ; sctimer_isr + 266
        0x00001e7a:    2004        .       MOVS     r0,#4
        0x00001e7c:    4020         @      ANDS     r0,r0,r4
        0x00001e7e:    2800        .(      CMP      r0,#0
        0x00001e80:    d003        ..      BEQ      0x1e8a ; sctimer_isr + 66
        0x00001e82:    2004        .       MOVS     r0,#4
        0x00001e84:    4936        6I      LDR      r1,[pc,#216] ; [0x1f60] = 0x42000040
        0x00001e86:    6348        Hc      STR      r0,[r1,#0x34]
        0x00001e88:    e016        ..      B        0x1eb8 ; sctimer_isr + 112
        0x00001e8a:    2008        .       MOVS     r0,#8
        0x00001e8c:    4020         @      ANDS     r0,r0,r4
        0x00001e8e:    2800        .(      CMP      r0,#0
        0x00001e90:    d003        ..      BEQ      0x1e9a ; sctimer_isr + 82
        0x00001e92:    2008        .       MOVS     r0,#8
        0x00001e94:    4932        2I      LDR      r1,[pc,#200] ; [0x1f60] = 0x42000040
        0x00001e96:    6348        Hc      STR      r0,[r1,#0x34]
        0x00001e98:    e00e        ..      B        0x1eb8 ; sctimer_isr + 112
        0x00001e9a:    2010        .       MOVS     r0,#0x10
        0x00001e9c:    4020         @      ANDS     r0,r0,r4
        0x00001e9e:    2800        .(      CMP      r0,#0
        0x00001ea0:    d003        ..      BEQ      0x1eaa ; sctimer_isr + 98
        0x00001ea2:    2010        .       MOVS     r0,#0x10
        0x00001ea4:    492e        .I      LDR      r1,[pc,#184] ; [0x1f60] = 0x42000040
        0x00001ea6:    6348        Hc      STR      r0,[r1,#0x34]
        0x00001ea8:    e006        ..      B        0x1eb8 ; sctimer_isr + 112
        0x00001eaa:    2020                MOVS     r0,#0x20
        0x00001eac:    4020         @      ANDS     r0,r0,r4
        0x00001eae:    2800        .(      CMP      r0,#0
        0x00001eb0:    d002        ..      BEQ      0x1eb8 ; sctimer_isr + 112
        0x00001eb2:    2020                MOVS     r0,#0x20
        0x00001eb4:    492a        *I      LDR      r1,[pc,#168] ; [0x1f60] = 0x42000040
        0x00001eb6:    6348        Hc      STR      r0,[r1,#0x34]
        0x00001eb8:    492a        *I      LDR      r1,[pc,#168] ; [0x1f64] = 0x200003f8
        0x00001eba:    6848        Hh      LDR      r0,[r1,#4]
        0x00001ebc:    4780        .G      BLX      r0
        0x00001ebe:    f7feff69    ..i.    BL       debugpins_isr_clr ; 0xd94
        0x00001ec2:    2001        .       MOVS     r0,#1
        0x00001ec4:    bd10        ..      POP      {r4,pc}
        0x00001ec6:    07e0        ..      LSLS     r0,r4,#31
        0x00001ec8:    0fc0        ..      LSRS     r0,r0,#31
        0x00001eca:    2800        .(      CMP      r0,#0
        0x00001ecc:    d013        ..      BEQ      0x1ef6 ; sctimer_isr + 174
        0x00001ece:    4825        %H      LDR      r0,[pc,#148] ; [0x1f64] = 0x200003f8
        0x00001ed0:    6800        .h      LDR      r0,[r0,#0]
        0x00001ed2:    2800        .(      CMP      r0,#0
        0x00001ed4:    d03d        =.      BEQ      0x1f52 ; sctimer_isr + 266
        0x00001ed6:    2000        .       MOVS     r0,#0
        0x00001ed8:    4922        "I      LDR      r1,[pc,#136] ; [0x1f64] = 0x200003f8
        0x00001eda:    7308        .s      STRB     r0,[r1,#0xc]
        0x00001edc:    6808        .h      LDR      r0,[r1,#0]
        0x00001ede:    4780        .G      BLX      r0
        0x00001ee0:    4820         H      LDR      r0,[pc,#128] ; [0x1f64] = 0x200003f8
        0x00001ee2:    7b00        .{      LDRB     r0,[r0,#0xc]
        0x00001ee4:    2800        .(      CMP      r0,#0
        0x00001ee6:    d102        ..      BNE      0x1eee ; sctimer_isr + 166
        0x00001ee8:    2001        .       MOVS     r0,#1
        0x00001eea:    491d        .I      LDR      r1,[pc,#116] ; [0x1f60] = 0x42000040
        0x00001eec:    6348        Hc      STR      r0,[r1,#0x34]
        0x00001eee:    f7feff51    ..Q.    BL       debugpins_isr_clr ; 0xd94
        0x00001ef2:    2001        .       MOVS     r0,#1
        0x00001ef4:    e7e6        ..      B        0x1ec4 ; sctimer_isr + 124
        0x00001ef6:    20ff        .       MOVS     r0,#0xff
        0x00001ef8:    3001        .0      ADDS     r0,#1
        0x00001efa:    4020         @      ANDS     r0,r0,r4
        0x00001efc:    2800        .(      CMP      r0,#0
        0x00001efe:    d004        ..      BEQ      0x1f0a ; sctimer_isr + 194
        0x00001f00:    20ff        .       MOVS     r0,#0xff
        0x00001f02:    3001        .0      ADDS     r0,#1
        0x00001f04:    4916        .I      LDR      r1,[pc,#88] ; [0x1f60] = 0x42000040
        0x00001f06:    6348        Hc      STR      r0,[r1,#0x34]
        0x00001f08:    e01f        ..      B        0x1f4a ; sctimer_isr + 258
        0x00001f0a:    2001        .       MOVS     r0,#1
        0x00001f0c:    0240        @.      LSLS     r0,r0,#9
        0x00001f0e:    4020         @      ANDS     r0,r0,r4
        0x00001f10:    2800        .(      CMP      r0,#0
        0x00001f12:    d004        ..      BEQ      0x1f1e ; sctimer_isr + 214
        0x00001f14:    2001        .       MOVS     r0,#1
        0x00001f16:    0240        @.      LSLS     r0,r0,#9
        0x00001f18:    4911        .I      LDR      r1,[pc,#68] ; [0x1f60] = 0x42000040
        0x00001f1a:    6348        Hc      STR      r0,[r1,#0x34]
        0x00001f1c:    e015        ..      B        0x1f4a ; sctimer_isr + 258
        0x00001f1e:    2001        .       MOVS     r0,#1
        0x00001f20:    0280        ..      LSLS     r0,r0,#10
        0x00001f22:    4020         @      ANDS     r0,r0,r4
        0x00001f24:    2800        .(      CMP      r0,#0
        0x00001f26:    d004        ..      BEQ      0x1f32 ; sctimer_isr + 234
        0x00001f28:    2001        .       MOVS     r0,#1
        0x00001f2a:    0280        ..      LSLS     r0,r0,#10
        0x00001f2c:    490c        .I      LDR      r1,[pc,#48] ; [0x1f60] = 0x42000040
        0x00001f2e:    6348        Hc      STR      r0,[r1,#0x34]
        0x00001f30:    e00b        ..      B        0x1f4a ; sctimer_isr + 258
        0x00001f32:    2001        .       MOVS     r0,#1
        0x00001f34:    02c0        ..      LSLS     r0,r0,#11
        0x00001f36:    4020         @      ANDS     r0,r0,r4
        0x00001f38:    2800        .(      CMP      r0,#0
        0x00001f3a:    d004        ..      BEQ      0x1f46 ; sctimer_isr + 254
        0x00001f3c:    2001        .       MOVS     r0,#1
        0x00001f3e:    02c0        ..      LSLS     r0,r0,#11
        0x00001f40:    4907        .I      LDR      r1,[pc,#28] ; [0x1f60] = 0x42000040
        0x00001f42:    6348        Hc      STR      r0,[r1,#0x34]
        0x00001f44:    e001        ..      B        0x1f4a ; sctimer_isr + 258
        0x00001f46:    4806        .H      LDR      r0,[pc,#24] ; [0x1f60] = 0x42000040
        0x00001f48:    6344        Dc      STR      r4,[r0,#0x34]
        0x00001f4a:    f7feff23    ..#.    BL       debugpins_isr_clr ; 0xd94
        0x00001f4e:    2001        .       MOVS     r0,#1
        0x00001f50:    e7b8        ..      B        0x1ec4 ; sctimer_isr + 124
        0x00001f52:    f7feff1f    ....    BL       debugpins_isr_clr ; 0xd94
        0x00001f56:    2001        .       MOVS     r0,#1
        0x00001f58:    4901        .I      LDR      r1,[pc,#4] ; [0x1f60] = 0x42000040
        0x00001f5a:    6348        Hc      STR      r0,[r1,#0x34]
        0x00001f5c:    2000        .       MOVS     r0,#0
        0x00001f5e:    e7b1        ..      B        0x1ec4 ; sctimer_isr + 124
    $d
        0x00001f60:    42000040    @..B    DCD    1107296320
        0x00001f64:    200003f8    ...     DCD    536871928
    $t
    i.sctimer_readCounter
    sctimer_readCounter
        0x00001f68:    2021        !       MOVS     r0,#0x21
        0x00001f6a:    0640        @.      LSLS     r0,r0,#25
        0x00001f6c:    6840        @h      LDR      r0,[r0,#4]
        0x00001f6e:    4770        pG      BX       lr
    i.setFrequencyRX
    setFrequencyRX
        0x00001f70:    b5f8        ..      PUSH     {r3-r7,lr}
        0x00001f72:    4604        .F      MOV      r4,r0
        0x00001f74:    4620         F      MOV      r0,r4
        0x00001f76:    380b        .8      SUBS     r0,r0,#0xb
        0x00001f78:    0040        @.      LSLS     r0,r0,#1
        0x00001f7a:    490b        .I      LDR      r1,[pc,#44] ; [0x1fa8] = 0x2000004c
        0x00001f7c:    5a08        .Z      LDRH     r0,[r1,r0]
        0x00001f7e:    0440        @.      LSLS     r0,r0,#17
        0x00001f80:    0ec5        ..      LSRS     r5,r0,#27
        0x00001f82:    4620         F      MOV      r0,r4
        0x00001f84:    380b        .8      SUBS     r0,r0,#0xb
        0x00001f86:    0040        @.      LSLS     r0,r0,#1
        0x00001f88:    5a08        .Z      LDRH     r0,[r1,r0]
        0x00001f8a:    0580        ..      LSLS     r0,r0,#22
        0x00001f8c:    0ec6        ..      LSRS     r6,r0,#27
        0x00001f8e:    4620         F      MOV      r0,r4
        0x00001f90:    380b        .8      SUBS     r0,r0,#0xb
        0x00001f92:    0040        @.      LSLS     r0,r0,#1
        0x00001f94:    5c08        .\      LDRB     r0,[r1,r0]
        0x00001f96:    06c7        ..      LSLS     r7,r0,#27
        0x00001f98:    0eff        ..      LSRS     r7,r7,#27
        0x00001f9a:    463a        :F      MOV      r2,r7
        0x00001f9c:    4631        1F      MOV      r1,r6
        0x00001f9e:    4628        (F      MOV      r0,r5
        0x00001fa0:    f7fefcee    ....    BL       LC_FREQCHANGE ; 0x980
        0x00001fa4:    bdf8        ..      POP      {r3-r7,pc}
    $d
        0x00001fa6:    0000        ..      DCW    0
        0x00001fa8:    2000004c    L..     DCD    536870988
    $t
    i.setFrequencyTX
    setFrequencyTX
        0x00001fac:    b5f8        ..      PUSH     {r3-r7,lr}
        0x00001fae:    4604        .F      MOV      r4,r0
        0x00001fb0:    4620         F      MOV      r0,r4
        0x00001fb2:    380b        .8      SUBS     r0,r0,#0xb
        0x00001fb4:    0040        @.      LSLS     r0,r0,#1
        0x00001fb6:    490b        .I      LDR      r1,[pc,#44] ; [0x1fe4] = 0x2000006c
        0x00001fb8:    5a08        .Z      LDRH     r0,[r1,r0]
        0x00001fba:    0440        @.      LSLS     r0,r0,#17
        0x00001fbc:    0ec5        ..      LSRS     r5,r0,#27
        0x00001fbe:    4620         F      MOV      r0,r4
        0x00001fc0:    380b        .8      SUBS     r0,r0,#0xb
        0x00001fc2:    0040        @.      LSLS     r0,r0,#1
        0x00001fc4:    5a08        .Z      LDRH     r0,[r1,r0]
        0x00001fc6:    0580        ..      LSLS     r0,r0,#22
        0x00001fc8:    0ec6        ..      LSRS     r6,r0,#27
        0x00001fca:    4620         F      MOV      r0,r4
        0x00001fcc:    380b        .8      SUBS     r0,r0,#0xb
        0x00001fce:    0040        @.      LSLS     r0,r0,#1
        0x00001fd0:    5c08        .\      LDRB     r0,[r1,r0]
        0x00001fd2:    06c7        ..      LSLS     r7,r0,#27
        0x00001fd4:    0eff        ..      LSRS     r7,r7,#27
        0x00001fd6:    463a        :F      MOV      r2,r7
        0x00001fd8:    4631        1F      MOV      r1,r6
        0x00001fda:    4628        (F      MOV      r0,r5
        0x00001fdc:    f7fefcd0    ....    BL       LC_FREQCHANGE ; 0x980
        0x00001fe0:    bdf8        ..      POP      {r3-r7,pc}
    $d
        0x00001fe2:    0000        ..      DCW    0
        0x00001fe4:    2000006c    l..     DCD    536871020
    $t
    i.set_2M_RC_frequency
    set_2M_RC_frequency
        0x00001fe8:    b5f0        ..      PUSH     {r4-r7,lr}
        0x00001fea:    b085        ..      SUB      sp,sp,#0x14
        0x00001fec:    4606        .F      MOV      r6,r0
        0x00001fee:    460c        .F      MOV      r4,r1
        0x00001ff0:    4615        .F      MOV      r5,r2
        0x00001ff2:    461f        .F      MOV      r7,r3
        0x00001ff4:    4820         H      LDR      r0,[pc,#128] ; [0x2078] = 0x200004a8
        0x00001ff6:    6186        .a      STR      r6,[r0,#0x18]
        0x00001ff8:    3018        .0      ADDS     r0,r0,#0x18
        0x00001ffa:    6044        D`      STR      r4,[r0,#4]
        0x00001ffc:    6085        .`      STR      r5,[r0,#8]
        0x00001ffe:    60c7        .`      STR      r7,[r0,#0xc]
        0x00002000:    491d        .I      LDR      r1,[pc,#116] ; [0x2078] = 0x200004a8
        0x00002002:    3118        .1      ADDS     r1,r1,#0x18
        0x00002004:    980a        ..      LDR      r0,[sp,#0x28]
        0x00002006:    6108        .a      STR      r0,[r1,#0x10]
        0x00002008:    481b        .H      LDR      r0,[pc,#108] ; [0x2078] = 0x200004a8
        0x0000200a:    6880        .h      LDR      r0,[r0,#8]
        0x0000200c:    491b        .I      LDR      r1,[pc,#108] ; [0x207c] = 0x8000001f
        0x0000200e:    4008        .@      ANDS     r0,r0,r1
        0x00002010:    4603        .F      MOV      r3,r0
        0x00002012:    4630        0F      MOV      r0,r6
        0x00002014:    f7feff77    ..w.    BL       flip_lsb8 ; 0xf06
        0x00002018:    0600        ..      LSLS     r0,r0,#24
        0x0000201a:    0ec0        ..      LSRS     r0,r0,#27
        0x0000201c:    9004        ..      STR      r0,[sp,#0x10]
        0x0000201e:    4620         F      MOV      r0,r4
        0x00002020:    f7feff71    ..q.    BL       flip_lsb8 ; 0xf06
        0x00002024:    0600        ..      LSLS     r0,r0,#24
        0x00002026:    0ec0        ..      LSRS     r0,r0,#27
        0x00002028:    9003        ..      STR      r0,[sp,#0xc]
        0x0000202a:    4628        (F      MOV      r0,r5
        0x0000202c:    f7feff6b    ..k.    BL       flip_lsb8 ; 0xf06
        0x00002030:    0600        ..      LSLS     r0,r0,#24
        0x00002032:    0ec0        ..      LSRS     r0,r0,#27
        0x00002034:    9002        ..      STR      r0,[sp,#8]
        0x00002036:    4638        8F      MOV      r0,r7
        0x00002038:    f7feff65    ..e.    BL       flip_lsb8 ; 0xf06
        0x0000203c:    0600        ..      LSLS     r0,r0,#24
        0x0000203e:    0ec0        ..      LSRS     r0,r0,#27
        0x00002040:    9001        ..      STR      r0,[sp,#4]
        0x00002042:    980a        ..      LDR      r0,[sp,#0x28]
        0x00002044:    f7feff5f    .._.    BL       flip_lsb8 ; 0xf06
        0x00002048:    0600        ..      LSLS     r0,r0,#24
        0x0000204a:    0ec0        ..      LSRS     r0,r0,#27
        0x0000204c:    9000        ..      STR      r0,[sp,#0]
        0x0000204e:    9804        ..      LDR      r0,[sp,#0x10]
        0x00002050:    0680        ..      LSLS     r0,r0,#26
        0x00002052:    4303        .C      ORRS     r3,r3,r0
        0x00002054:    9803        ..      LDR      r0,[sp,#0xc]
        0x00002056:    0540        @.      LSLS     r0,r0,#21
        0x00002058:    4303        .C      ORRS     r3,r3,r0
        0x0000205a:    9802        ..      LDR      r0,[sp,#8]
        0x0000205c:    0400        ..      LSLS     r0,r0,#16
        0x0000205e:    4303        .C      ORRS     r3,r3,r0
        0x00002060:    9801        ..      LDR      r0,[sp,#4]
        0x00002062:    02c0        ..      LSLS     r0,r0,#11
        0x00002064:    4303        .C      ORRS     r3,r3,r0
        0x00002066:    9800        ..      LDR      r0,[sp,#0]
        0x00002068:    0180        ..      LSLS     r0,r0,#6
        0x0000206a:    4303        .C      ORRS     r3,r3,r0
        0x0000206c:    2020                MOVS     r0,#0x20
        0x0000206e:    4303        .C      ORRS     r3,r3,r0
        0x00002070:    4801        .H      LDR      r0,[pc,#4] ; [0x2078] = 0x200004a8
        0x00002072:    6083        .`      STR      r3,[r0,#8]
        0x00002074:    b005        ..      ADD      sp,sp,#0x14
        0x00002076:    bdf0        ..      POP      {r4-r7,pc}
    $d
        0x00002078:    200004a8    ...     DCD    536872104
        0x0000207c:    8000001f    ....    DCD    2147483679
    $t
    i.set_DIV_supply
    set_DIV_supply
        0x00002080:    b510        ..      PUSH     {r4,lr}
        0x00002082:    460a        .F      MOV      r2,r1
        0x00002084:    237f        .#      MOVS     r3,#0x7f
        0x00002086:    4383        .C      BICS     r3,r3,r0
        0x00002088:    0159        Y.      LSLS     r1,r3,#5
        0x0000208a:    4b06        .K      LDR      r3,[pc,#24] ; [0x20a4] = 0x20000428
        0x0000208c:    6f9b        .o      LDR      r3,[r3,#0x78]
        0x0000208e:    247f        .$      MOVS     r4,#0x7f
        0x00002090:    0364        d.      LSLS     r4,r4,#13
        0x00002092:    43a3        .C      BICS     r3,r3,r4
        0x00002094:    4c03        .L      LDR      r4,[pc,#12] ; [0x20a4] = 0x20000428
        0x00002096:    67a3        .g      STR      r3,[r4,#0x78]
        0x00002098:    4623        #F      MOV      r3,r4
        0x0000209a:    6f9b        .o      LDR      r3,[r3,#0x78]
        0x0000209c:    430b        .C      ORRS     r3,r3,r1
        0x0000209e:    67a3        .g      STR      r3,[r4,#0x78]
        0x000020a0:    bd10        ..      POP      {r4,pc}
    $d
        0x000020a2:    0000        ..      DCW    0
        0x000020a4:    20000428    (..     DCD    536871976
    $t
    i.set_IF_LDO_voltage
    set_IF_LDO_voltage
        0x000020a8:    b530        0.      PUSH     {r4,r5,lr}
        0x000020aa:    4605        .F      MOV      r5,r0
        0x000020ac:    2400        .$      MOVS     r4,#0
        0x000020ae:    e011        ..      B        0x20d4 ; set_IF_LDO_voltage + 44
        0x000020b0:    4628        (F      MOV      r0,r5
        0x000020b2:    4120         A      ASRS     r0,r0,r4
        0x000020b4:    07c0        ..      LSLS     r0,r0,#31
        0x000020b6:    0fc0        ..      LSRS     r0,r0,#31
        0x000020b8:    2800        .(      CMP      r0,#0
        0x000020ba:    d005        ..      BEQ      0x20c8 ; set_IF_LDO_voltage + 32
        0x000020bc:    4620         F      MOV      r0,r4
        0x000020be:    30ff        .0      ADDS     r0,r0,#0xff
        0x000020c0:    30ed        .0      ADDS     r0,r0,#0xed
        0x000020c2:    f000f941    ..A.    BL       set_asc_bit ; 0x2348
        0x000020c6:    e004        ..      B        0x20d2 ; set_IF_LDO_voltage + 42
        0x000020c8:    4620         F      MOV      r0,r4
        0x000020ca:    30ff        .0      ADDS     r0,r0,#0xff
        0x000020cc:    30ed        .0      ADDS     r0,r0,#0xed
        0x000020ce:    f7fefe21    ..!.    BL       clear_asc_bit ; 0xd14
        0x000020d2:    1c64        d.      ADDS     r4,r4,#1
        0x000020d4:    2c06        .,      CMP      r4,#6
        0x000020d6:    d9eb        ..      BLS      0x20b0 ; set_IF_LDO_voltage + 8
        0x000020d8:    bd30        0.      POP      {r4,r5,pc}
        0x000020da:    0000        ..      MOVS     r0,r0
    i.set_IF_clock_frequency
    set_IF_clock_frequency
        0x000020dc:    b5f0        ..      PUSH     {r4-r7,lr}
        0x000020de:    4605        .F      MOV      r5,r0
        0x000020e0:    460e        .F      MOV      r6,r1
        0x000020e2:    4617        .F      MOV      r7,r2
        0x000020e4:    2400        .$      MOVS     r4,#0
        0x000020e6:    e011        ..      B        0x210c ; set_IF_clock_frequency + 48
        0x000020e8:    4628        (F      MOV      r0,r5
        0x000020ea:    4120         A      ASRS     r0,r0,r4
        0x000020ec:    07c0        ..      LSLS     r0,r0,#31
        0x000020ee:    0fc0        ..      LSRS     r0,r0,#31
        0x000020f0:    2800        .(      CMP      r0,#0
        0x000020f2:    d005        ..      BEQ      0x2100 ; set_IF_clock_frequency + 36
        0x000020f4:    21ff        .!      MOVS     r1,#0xff
        0x000020f6:    31b0        .1      ADDS     r1,r1,#0xb0
        0x000020f8:    1b08        ..      SUBS     r0,r1,r4
        0x000020fa:    f000f925    ..%.    BL       set_asc_bit ; 0x2348
        0x000020fe:    e004        ..      B        0x210a ; set_IF_clock_frequency + 46
        0x00002100:    21ff        .!      MOVS     r1,#0xff
        0x00002102:    31b0        .1      ADDS     r1,r1,#0xb0
        0x00002104:    1b08        ..      SUBS     r0,r1,r4
        0x00002106:    f7fefe05    ....    BL       clear_asc_bit ; 0xd14
        0x0000210a:    1c64        d.      ADDS     r4,r4,#1
        0x0000210c:    2c04        .,      CMP      r4,#4
        0x0000210e:    d9eb        ..      BLS      0x20e8 ; set_IF_clock_frequency + 12
        0x00002110:    2400        .$      MOVS     r4,#0
        0x00002112:    e011        ..      B        0x2138 ; set_IF_clock_frequency + 92
        0x00002114:    4630        0F      MOV      r0,r6
        0x00002116:    4120         A      ASRS     r0,r0,r4
        0x00002118:    07c0        ..      LSLS     r0,r0,#31
        0x0000211a:    0fc0        ..      LSRS     r0,r0,#31
        0x0000211c:    2800        .(      CMP      r0,#0
        0x0000211e:    d005        ..      BEQ      0x212c ; set_IF_clock_frequency + 80
        0x00002120:    21ff        .!      MOVS     r1,#0xff
        0x00002122:    31b6        .1      ADDS     r1,r1,#0xb6
        0x00002124:    1b08        ..      SUBS     r0,r1,r4
        0x00002126:    f000f90f    ....    BL       set_asc_bit ; 0x2348
        0x0000212a:    e004        ..      B        0x2136 ; set_IF_clock_frequency + 90
        0x0000212c:    21ff        .!      MOVS     r1,#0xff
        0x0000212e:    31b6        .1      ADDS     r1,r1,#0xb6
        0x00002130:    1b08        ..      SUBS     r0,r1,r4
        0x00002132:    f7fefdef    ....    BL       clear_asc_bit ; 0xd14
        0x00002136:    1c64        d.      ADDS     r4,r4,#1
        0x00002138:    2c04        .,      CMP      r4,#4
        0x0000213a:    d9eb        ..      BLS      0x2114 ; set_IF_clock_frequency + 56
        0x0000213c:    2f01        ./      CMP      r7,#1
        0x0000213e:    d103        ..      BNE      0x2148 ; set_IF_clock_frequency + 108
        0x00002140:    4803        .H      LDR      r0,[pc,#12] ; [0x2150] = 0x2d6
        0x00002142:    f000f901    ....    BL       set_asc_bit ; 0x2348
        0x00002146:    e002        ..      B        0x214e ; set_IF_clock_frequency + 114
        0x00002148:    4801        .H      LDR      r0,[pc,#4] ; [0x2150] = 0x2d6
        0x0000214a:    f7fefde3    ....    BL       clear_asc_bit ; 0xd14
        0x0000214e:    bdf0        ..      POP      {r4-r7,pc}
    $d
        0x00002150:    000002d6    ....    DCD    726
    $t
    i.set_IF_comparator_trim_I
    set_IF_comparator_trim_I
        0x00002154:    b570        p.      PUSH     {r4-r6,lr}
        0x00002156:    4605        .F      MOV      r5,r0
        0x00002158:    460e        .F      MOV      r6,r1
        0x0000215a:    2400        .$      MOVS     r4,#0
        0x0000215c:    e011        ..      B        0x2182 ; set_IF_comparator_trim_I + 46
        0x0000215e:    4630        0F      MOV      r0,r6
        0x00002160:    40e0        .@      LSRS     r0,r0,r4
        0x00002162:    07c0        ..      LSLS     r0,r0,#31
        0x00002164:    0fc0        ..      LSRS     r0,r0,#31
        0x00002166:    2800        .(      CMP      r0,#0
        0x00002168:    d005        ..      BEQ      0x2176 ; set_IF_comparator_trim_I + 34
        0x0000216a:    4620         F      MOV      r0,r4
        0x0000216c:    30ff        .0      ADDS     r0,r0,#0xff
        0x0000216e:    30c5        .0      ADDS     r0,r0,#0xc5
        0x00002170:    f000f8ea    ....    BL       set_asc_bit ; 0x2348
        0x00002174:    e004        ..      B        0x2180 ; set_IF_comparator_trim_I + 44
        0x00002176:    4620         F      MOV      r0,r4
        0x00002178:    30ff        .0      ADDS     r0,r0,#0xff
        0x0000217a:    30c5        .0      ADDS     r0,r0,#0xc5
        0x0000217c:    f7fefdca    ....    BL       clear_asc_bit ; 0xd14
        0x00002180:    1c64        d.      ADDS     r4,r4,#1
        0x00002182:    2c04        .,      CMP      r4,#4
        0x00002184:    ddeb        ..      BLE      0x215e ; set_IF_comparator_trim_I + 10
        0x00002186:    2400        .$      MOVS     r4,#0
        0x00002188:    e011        ..      B        0x21ae ; set_IF_comparator_trim_I + 90
        0x0000218a:    4628        (F      MOV      r0,r5
        0x0000218c:    40e0        .@      LSRS     r0,r0,r4
        0x0000218e:    07c0        ..      LSLS     r0,r0,#31
        0x00002190:    0fc0        ..      LSRS     r0,r0,#31
        0x00002192:    2800        .(      CMP      r0,#0
        0x00002194:    d005        ..      BEQ      0x21a2 ; set_IF_comparator_trim_I + 78
        0x00002196:    4620         F      MOV      r0,r4
        0x00002198:    30ff        .0      ADDS     r0,r0,#0xff
        0x0000219a:    30ca        .0      ADDS     r0,r0,#0xca
        0x0000219c:    f000f8d4    ....    BL       set_asc_bit ; 0x2348
        0x000021a0:    e004        ..      B        0x21ac ; set_IF_comparator_trim_I + 88
        0x000021a2:    4620         F      MOV      r0,r4
        0x000021a4:    30ff        .0      ADDS     r0,r0,#0xff
        0x000021a6:    30ca        .0      ADDS     r0,r0,#0xca
        0x000021a8:    f7fefdb4    ....    BL       clear_asc_bit ; 0xd14
        0x000021ac:    1c64        d.      ADDS     r4,r4,#1
        0x000021ae:    2c04        .,      CMP      r4,#4
        0x000021b0:    ddeb        ..      BLE      0x218a ; set_IF_comparator_trim_I + 54
        0x000021b2:    bd70        p.      POP      {r4-r6,pc}
    i.set_IF_comparator_trim_Q
    set_IF_comparator_trim_Q
        0x000021b4:    b570        p.      PUSH     {r4-r6,lr}
        0x000021b6:    4605        .F      MOV      r5,r0
        0x000021b8:    460e        .F      MOV      r6,r1
        0x000021ba:    2400        .$      MOVS     r4,#0
        0x000021bc:    e011        ..      B        0x21e2 ; set_IF_comparator_trim_Q + 46
        0x000021be:    4630        0F      MOV      r0,r6
        0x000021c0:    40e0        .@      LSRS     r0,r0,r4
        0x000021c2:    07c0        ..      LSLS     r0,r0,#31
        0x000021c4:    0fc0        ..      LSRS     r0,r0,#31
        0x000021c6:    2800        .(      CMP      r0,#0
        0x000021c8:    d005        ..      BEQ      0x21d6 ; set_IF_comparator_trim_Q + 34
        0x000021ca:    21ff        .!      MOVS     r1,#0xff
        0x000021cc:    3159        Y1      ADDS     r1,r1,#0x59
        0x000021ce:    1b08        ..      SUBS     r0,r1,r4
        0x000021d0:    f000f8ba    ....    BL       set_asc_bit ; 0x2348
        0x000021d4:    e004        ..      B        0x21e0 ; set_IF_comparator_trim_Q + 44
        0x000021d6:    21ff        .!      MOVS     r1,#0xff
        0x000021d8:    3159        Y1      ADDS     r1,r1,#0x59
        0x000021da:    1b08        ..      SUBS     r0,r1,r4
        0x000021dc:    f7fefd9a    ....    BL       clear_asc_bit ; 0xd14
        0x000021e0:    1c64        d.      ADDS     r4,r4,#1
        0x000021e2:    2c04        .,      CMP      r4,#4
        0x000021e4:    ddeb        ..      BLE      0x21be ; set_IF_comparator_trim_Q + 10
        0x000021e6:    2400        .$      MOVS     r4,#0
        0x000021e8:    e011        ..      B        0x220e ; set_IF_comparator_trim_Q + 90
        0x000021ea:    4628        (F      MOV      r0,r5
        0x000021ec:    40e0        .@      LSRS     r0,r0,r4
        0x000021ee:    07c0        ..      LSLS     r0,r0,#31
        0x000021f0:    0fc0        ..      LSRS     r0,r0,#31
        0x000021f2:    2800        .(      CMP      r0,#0
        0x000021f4:    d005        ..      BEQ      0x2202 ; set_IF_comparator_trim_Q + 78
        0x000021f6:    21ff        .!      MOVS     r1,#0xff
        0x000021f8:    3154        T1      ADDS     r1,r1,#0x54
        0x000021fa:    1b08        ..      SUBS     r0,r1,r4
        0x000021fc:    f000f8a4    ....    BL       set_asc_bit ; 0x2348
        0x00002200:    e004        ..      B        0x220c ; set_IF_comparator_trim_Q + 88
        0x00002202:    21ff        .!      MOVS     r1,#0xff
        0x00002204:    3154        T1      ADDS     r1,r1,#0x54
        0x00002206:    1b08        ..      SUBS     r0,r1,r4
        0x00002208:    f7fefd84    ....    BL       clear_asc_bit ; 0xd14
        0x0000220c:    1c64        d.      ADDS     r4,r4,#1
        0x0000220e:    2c04        .,      CMP      r4,#4
        0x00002210:    ddeb        ..      BLE      0x21ea ; set_IF_comparator_trim_Q + 54
        0x00002212:    bd70        p.      POP      {r4-r6,pc}
    i.set_IF_gain_ASC
    set_IF_gain_ASC
        0x00002214:    b570        p.      PUSH     {r4-r6,lr}
        0x00002216:    4605        .F      MOV      r5,r0
        0x00002218:    460e        .F      MOV      r6,r1
        0x0000221a:    2400        .$      MOVS     r4,#0
        0x0000221c:    e011        ..      B        0x2242 ; set_IF_gain_ASC + 46
        0x0000221e:    4628        (F      MOV      r0,r5
        0x00002220:    40e0        .@      LSRS     r0,r0,r4
        0x00002222:    07c0        ..      LSLS     r0,r0,#31
        0x00002224:    0fc0        ..      LSRS     r0,r0,#31
        0x00002226:    2800        .(      CMP      r0,#0
        0x00002228:    d005        ..      BEQ      0x2236 ; set_IF_gain_ASC + 34
        0x0000222a:    4620         F      MOV      r0,r4
        0x0000222c:    30ff        .0      ADDS     r0,r0,#0xff
        0x0000222e:    30e6        .0      ADDS     r0,r0,#0xe6
        0x00002230:    f000f88a    ....    BL       set_asc_bit ; 0x2348
        0x00002234:    e004        ..      B        0x2240 ; set_IF_gain_ASC + 44
        0x00002236:    4620         F      MOV      r0,r4
        0x00002238:    30ff        .0      ADDS     r0,r0,#0xff
        0x0000223a:    30e6        .0      ADDS     r0,r0,#0xe6
        0x0000223c:    f7fefd6a    ..j.    BL       clear_asc_bit ; 0xd14
        0x00002240:    1c64        d.      ADDS     r4,r4,#1
        0x00002242:    2c04        .,      CMP      r4,#4
        0x00002244:    ddeb        ..      BLE      0x221e ; set_IF_gain_ASC + 10
        0x00002246:    2400        .$      MOVS     r4,#0
        0x00002248:    e011        ..      B        0x226e ; set_IF_gain_ASC + 90
        0x0000224a:    4630        0F      MOV      r0,r6
        0x0000224c:    40e0        .@      LSRS     r0,r0,r4
        0x0000224e:    07c0        ..      LSLS     r0,r0,#31
        0x00002250:    0fc0        ..      LSRS     r0,r0,#31
        0x00002252:    2800        .(      CMP      r0,#0
        0x00002254:    d005        ..      BEQ      0x2262 ; set_IF_gain_ASC + 78
        0x00002256:    21ff        .!      MOVS     r1,#0xff
        0x00002258:    3116        .1      ADDS     r1,r1,#0x16
        0x0000225a:    1b08        ..      SUBS     r0,r1,r4
        0x0000225c:    f000f874    ..t.    BL       set_asc_bit ; 0x2348
        0x00002260:    e004        ..      B        0x226c ; set_IF_gain_ASC + 88
        0x00002262:    21ff        .!      MOVS     r1,#0xff
        0x00002264:    3116        .1      ADDS     r1,r1,#0x16
        0x00002266:    1b08        ..      SUBS     r0,r1,r4
        0x00002268:    f7fefd54    ..T.    BL       clear_asc_bit ; 0xd14
        0x0000226c:    1c64        d.      ADDS     r4,r4,#1
        0x0000226e:    2c05        .,      CMP      r4,#5
        0x00002270:    ddeb        ..      BLE      0x224a ; set_IF_gain_ASC + 54
        0x00002272:    bd70        p.      POP      {r4-r6,pc}
    i.set_IF_stg3gm_ASC
    set_IF_stg3gm_ASC
        0x00002274:    b570        p.      PUSH     {r4-r6,lr}
        0x00002276:    4605        .F      MOV      r5,r0
        0x00002278:    460e        .F      MOV      r6,r1
        0x0000227a:    2400        .$      MOVS     r4,#0
        0x0000227c:    e00a        ..      B        0x2294 ; set_IF_stg3gm_ASC + 32
        0x0000227e:    4620         F      MOV      r0,r4
        0x00002280:    30ff        .0      ADDS     r0,r0,#0xff
        0x00002282:    30d9        .0      ADDS     r0,r0,#0xd9
        0x00002284:    f7fefd46    ..F.    BL       clear_asc_bit ; 0xd14
        0x00002288:    4620         F      MOV      r0,r4
        0x0000228a:    30ff        .0      ADDS     r0,r0,#0xff
        0x0000228c:    3017        .0      ADDS     r0,r0,#0x17
        0x0000228e:    f7fefd41    ..A.    BL       clear_asc_bit ; 0xd14
        0x00002292:    1c64        d.      ADDS     r4,r4,#1
        0x00002294:    2c0d        .,      CMP      r4,#0xd
        0x00002296:    dbf2        ..      BLT      0x227e ; set_IF_stg3gm_ASC + 10
        0x00002298:    2400        .$      MOVS     r4,#0
        0x0000229a:    e005        ..      B        0x22a8 ; set_IF_stg3gm_ASC + 52
        0x0000229c:    21ff        .!      MOVS     r1,#0xff
        0x0000229e:    31e5        .1      ADDS     r1,r1,#0xe5
        0x000022a0:    1b08        ..      SUBS     r0,r1,r4
        0x000022a2:    f000f851    ..Q.    BL       set_asc_bit ; 0x2348
        0x000022a6:    1c64        d.      ADDS     r4,r4,#1
        0x000022a8:    42ac        .B      CMP      r4,r5
        0x000022aa:    d9f7        ..      BLS      0x229c ; set_IF_stg3gm_ASC + 40
        0x000022ac:    2400        .$      MOVS     r4,#0
        0x000022ae:    e005        ..      B        0x22bc ; set_IF_stg3gm_ASC + 72
        0x000022b0:    4620         F      MOV      r0,r4
        0x000022b2:    30ff        .0      ADDS     r0,r0,#0xff
        0x000022b4:    3017        .0      ADDS     r0,r0,#0x17
        0x000022b6:    f7fefd2d    ..-.    BL       clear_asc_bit ; 0xd14
        0x000022ba:    1c64        d.      ADDS     r4,r4,#1
        0x000022bc:    42b4        .B      CMP      r4,r6
        0x000022be:    d9f7        ..      BLS      0x22b0 ; set_IF_stg3gm_ASC + 60
        0x000022c0:    bd70        p.      POP      {r4-r6,pc}
        0x000022c2:    0000        ..      MOVS     r0,r0
    i.set_LC_current
    set_LC_current
        0x000022c4:    b510        ..      PUSH     {r4,lr}
        0x000022c6:    23f0        .#      MOVS     r3,#0xf0
        0x000022c8:    4003        .@      ANDS     r3,r3,r0
        0x000022ca:    0919        ..      LSRS     r1,r3,#4
        0x000022cc:    0702        ..      LSLS     r2,r0,#28
        0x000022ce:    4b0a        .K      LDR      r3,[pc,#40] ; [0x22f8] = 0x20000428
        0x000022d0:    6f9b        .o      LDR      r3,[r3,#0x78]
        0x000022d2:    091b        ..      LSRS     r3,r3,#4
        0x000022d4:    011b        ..      LSLS     r3,r3,#4
        0x000022d6:    4c08        .L      LDR      r4,[pc,#32] ; [0x22f8] = 0x20000428
        0x000022d8:    67a3        .g      STR      r3,[r4,#0x78]
        0x000022da:    4623        #F      MOV      r3,r4
        0x000022dc:    6f9b        .o      LDR      r3,[r3,#0x78]
        0x000022de:    430b        .C      ORRS     r3,r3,r1
        0x000022e0:    67a3        .g      STR      r3,[r4,#0x78]
        0x000022e2:    4623        #F      MOV      r3,r4
        0x000022e4:    6fdb        .o      LDR      r3,[r3,#0x7c]
        0x000022e6:    011b        ..      LSLS     r3,r3,#4
        0x000022e8:    091b        ..      LSRS     r3,r3,#4
        0x000022ea:    67e3        .g      STR      r3,[r4,#0x7c]
        0x000022ec:    4623        #F      MOV      r3,r4
        0x000022ee:    6fdb        .o      LDR      r3,[r3,#0x7c]
        0x000022f0:    4313        .C      ORRS     r3,r3,r2
        0x000022f2:    67e3        .g      STR      r3,[r4,#0x7c]
        0x000022f4:    bd10        ..      POP      {r4,pc}
    $d
        0x000022f6:    0000        ..      DCW    0
        0x000022f8:    20000428    (..     DCD    536871976
    $t
    i.set_LO_supply
    set_LO_supply
        0x000022fc:    b510        ..      PUSH     {r4,lr}
        0x000022fe:    460a        .F      MOV      r2,r1
        0x00002300:    237f        .#      MOVS     r3,#0x7f
        0x00002302:    4383        .C      BICS     r3,r3,r0
        0x00002304:    0159        Y.      LSLS     r1,r3,#5
        0x00002306:    4b05        .K      LDR      r3,[pc,#20] ; [0x231c] = 0x20000428
        0x00002308:    6f9b        .o      LDR      r3,[r3,#0x78]
        0x0000230a:    4c05        .L      LDR      r4,[pc,#20] ; [0x2320] = 0xfffff017
        0x0000230c:    4023        #@      ANDS     r3,r3,r4
        0x0000230e:    4c03        .L      LDR      r4,[pc,#12] ; [0x231c] = 0x20000428
        0x00002310:    67a3        .g      STR      r3,[r4,#0x78]
        0x00002312:    4623        #F      MOV      r3,r4
        0x00002314:    6f9b        .o      LDR      r3,[r3,#0x78]
        0x00002316:    430b        .C      ORRS     r3,r3,r1
        0x00002318:    67a3        .g      STR      r3,[r4,#0x78]
        0x0000231a:    bd10        ..      POP      {r4,pc}
    $d
        0x0000231c:    20000428    (..     DCD    536871976
        0x00002320:    fffff017    ....    DCD    4294963223
    $t
    i.set_PA_supply
    set_PA_supply
        0x00002324:    227f        ."      MOVS     r2,#0x7f
        0x00002326:    4382        .C      BICS     r2,r2,r0
        0x00002328:    0351        Q.      LSLS     r1,r2,#13
        0x0000232a:    4a06        .J      LDR      r2,[pc,#24] ; [0x2344] = 0x20000428
        0x0000232c:    6f92        .o      LDR      r2,[r2,#0x78]
        0x0000232e:    237f        .#      MOVS     r3,#0x7f
        0x00002330:    035b        [.      LSLS     r3,r3,#13
        0x00002332:    439a        .C      BICS     r2,r2,r3
        0x00002334:    4b03        .K      LDR      r3,[pc,#12] ; [0x2344] = 0x20000428
        0x00002336:    679a        .g      STR      r2,[r3,#0x78]
        0x00002338:    461a        .F      MOV      r2,r3
        0x0000233a:    6f92        .o      LDR      r2,[r2,#0x78]
        0x0000233c:    430a        .C      ORRS     r2,r2,r1
        0x0000233e:    679a        .g      STR      r2,[r3,#0x78]
        0x00002340:    4770        pG      BX       lr
    $d
        0x00002342:    0000        ..      DCW    0
        0x00002344:    20000428    (..     DCD    536871976
    $t
    i.set_asc_bit
    set_asc_bit
        0x00002348:    b510        ..      PUSH     {r4,lr}
        0x0000234a:    0941        A.      LSRS     r1,r0,#5
        0x0000234c:    008a        ..      LSLS     r2,r1,#2
        0x0000234e:    4b06        .K      LDR      r3,[pc,#24] ; [0x2368] = 0x20000428
        0x00002350:    589a        .X      LDR      r2,[r3,r2]
        0x00002352:    014b        K.      LSLS     r3,r1,#5
        0x00002354:    1ac4        ..      SUBS     r4,r0,r3
        0x00002356:    2301        .#      MOVS     r3,#1
        0x00002358:    07db        ..      LSLS     r3,r3,#31
        0x0000235a:    40e3        .@      LSRS     r3,r3,r4
        0x0000235c:    431a        .C      ORRS     r2,r2,r3
        0x0000235e:    008b        ..      LSLS     r3,r1,#2
        0x00002360:    4c01        .L      LDR      r4,[pc,#4] ; [0x2368] = 0x20000428
        0x00002362:    50e2        .P      STR      r2,[r4,r3]
        0x00002364:    bd10        ..      POP      {r4,pc}
    $d
        0x00002366:    0000        ..      DCW    0
        0x00002368:    20000428    (..     DCD    536871976
    $t
    i.set_sys_clk_secondary_freq
    set_sys_clk_secondary_freq
        0x0000236c:    b570        p.      PUSH     {r4-r6,lr}
        0x0000236e:    4605        .F      MOV      r5,r0
        0x00002370:    460e        .F      MOV      r6,r1
        0x00002372:    2400        .$      MOVS     r4,#0
        0x00002374:    e00f        ..      B        0x2396 ; set_sys_clk_secondary_freq + 42
        0x00002376:    4630        0F      MOV      r0,r6
        0x00002378:    40e0        .@      LSRS     r0,r0,r4
        0x0000237a:    07c0        ..      LSLS     r0,r0,#31
        0x0000237c:    0fc0        ..      LSRS     r0,r0,#31
        0x0000237e:    2800        .(      CMP      r0,#0
        0x00002380:    d004        ..      BEQ      0x238c ; set_sys_clk_secondary_freq + 32
        0x00002382:    4923        #I      LDR      r1,[pc,#140] ; [0x2410] = 0x366
        0x00002384:    1860        `.      ADDS     r0,r4,r1
        0x00002386:    f7ffffdf    ....    BL       set_asc_bit ; 0x2348
        0x0000238a:    e003        ..      B        0x2394 ; set_sys_clk_secondary_freq + 40
        0x0000238c:    4920         I      LDR      r1,[pc,#128] ; [0x2410] = 0x366
        0x0000238e:    1860        `.      ADDS     r0,r4,r1
        0x00002390:    f7fefcc0    ....    BL       clear_asc_bit ; 0xd14
        0x00002394:    1c64        d.      ADDS     r4,r4,#1
        0x00002396:    2c03        .,      CMP      r4,#3
        0x00002398:    dded        ..      BLE      0x2376 ; set_sys_clk_secondary_freq + 10
        0x0000239a:    06f0        ..      LSLS     r0,r6,#27
        0x0000239c:    0fc0        ..      LSRS     r0,r0,#31
        0x0000239e:    2800        .(      CMP      r0,#0
        0x000023a0:    d004        ..      BEQ      0x23ac ; set_sys_clk_secondary_freq + 64
        0x000023a2:    481b        .H      LDR      r0,[pc,#108] ; [0x2410] = 0x366
        0x000023a4:    1d00        ..      ADDS     r0,r0,#4
        0x000023a6:    f7fefcb5    ....    BL       clear_asc_bit ; 0xd14
        0x000023aa:    e003        ..      B        0x23b4 ; set_sys_clk_secondary_freq + 72
        0x000023ac:    4818        .H      LDR      r0,[pc,#96] ; [0x2410] = 0x366
        0x000023ae:    1d00        ..      ADDS     r0,r0,#4
        0x000023b0:    f7ffffca    ....    BL       set_asc_bit ; 0x2348
        0x000023b4:    2400        .$      MOVS     r4,#0
        0x000023b6:    e011        ..      B        0x23dc ; set_sys_clk_secondary_freq + 112
        0x000023b8:    4628        (F      MOV      r0,r5
        0x000023ba:    40e0        .@      LSRS     r0,r0,r4
        0x000023bc:    07c0        ..      LSLS     r0,r0,#31
        0x000023be:    0fc0        ..      LSRS     r0,r0,#31
        0x000023c0:    2800        .(      CMP      r0,#0
        0x000023c2:    d005        ..      BEQ      0x23d0 ; set_sys_clk_secondary_freq + 100
        0x000023c4:    21d7        .!      MOVS     r1,#0xd7
        0x000023c6:    0089        ..      LSLS     r1,r1,#2
        0x000023c8:    1860        `.      ADDS     r0,r4,r1
        0x000023ca:    f7ffffbd    ....    BL       set_asc_bit ; 0x2348
        0x000023ce:    e004        ..      B        0x23da ; set_sys_clk_secondary_freq + 110
        0x000023d0:    21d7        .!      MOVS     r1,#0xd7
        0x000023d2:    0089        ..      LSLS     r1,r1,#2
        0x000023d4:    1860        `.      ADDS     r0,r4,r1
        0x000023d6:    f7fefc9d    ....    BL       clear_asc_bit ; 0xd14
        0x000023da:    1c64        d.      ADDS     r4,r4,#1
        0x000023dc:    2c01        .,      CMP      r4,#1
        0x000023de:    ddeb        ..      BLE      0x23b8 ; set_sys_clk_secondary_freq + 76
        0x000023e0:    2402        .$      MOVS     r4,#2
        0x000023e2:    e011        ..      B        0x2408 ; set_sys_clk_secondary_freq + 156
        0x000023e4:    4628        (F      MOV      r0,r5
        0x000023e6:    40e0        .@      LSRS     r0,r0,r4
        0x000023e8:    07c0        ..      LSLS     r0,r0,#31
        0x000023ea:    0fc0        ..      LSRS     r0,r0,#31
        0x000023ec:    2800        .(      CMP      r0,#0
        0x000023ee:    d005        ..      BEQ      0x23fc ; set_sys_clk_secondary_freq + 144
        0x000023f0:    4907        .I      LDR      r1,[pc,#28] ; [0x2410] = 0x366
        0x000023f2:    1cc9        ..      ADDS     r1,r1,#3
        0x000023f4:    1860        `.      ADDS     r0,r4,r1
        0x000023f6:    f7fefc8d    ....    BL       clear_asc_bit ; 0xd14
        0x000023fa:    e004        ..      B        0x2406 ; set_sys_clk_secondary_freq + 154
        0x000023fc:    4904        .I      LDR      r1,[pc,#16] ; [0x2410] = 0x366
        0x000023fe:    1cc9        ..      ADDS     r1,r1,#3
        0x00002400:    1860        `.      ADDS     r0,r4,r1
        0x00002402:    f7ffffa1    ....    BL       set_asc_bit ; 0x2348
        0x00002406:    1c64        d.      ADDS     r4,r4,#1
        0x00002408:    2c04        .,      CMP      r4,#4
        0x0000240a:    ddeb        ..      BLE      0x23e4 ; set_sys_clk_secondary_freq + 120
        0x0000240c:    bd70        p.      POP      {r4-r6,pc}
    $d
        0x0000240e:    0000        ..      DCW    0
        0x00002410:    00000366    f...    DCD    870
    $t
    i.uart_init
    uart_init
        0x00002414:    4802        .H      LDR      r0,[pc,#8] ; [0x2420] = 0x200000b4
        0x00002416:    2100        .!      MOVS     r1,#0
        0x00002418:    6001        .`      STR      r1,[r0,#0]
        0x0000241a:    6041        A`      STR      r1,[r0,#4]
        0x0000241c:    6081        .`      STR      r1,[r0,#8]
        0x0000241e:    4770        pG      BX       lr
    $d
        0x00002420:    200000b4    ...     DCD    536871092
    $t
    i.uart_out
    uart_out
        0x00002424:    2151        Q!      MOVS     r1,#0x51
        0x00002426:    0609        ..      LSLS     r1,r1,#24
        0x00002428:    7008        .p      STRB     r0,[r1,#0]
        0x0000242a:    4770        pG      BX       lr
    i.uart_rx_isr
    uart_rx_isr
        0x0000242c:    b510        ..      PUSH     {r4,lr}
        0x0000242e:    4804        .H      LDR      r0,[pc,#16] ; [0x2440] = 0x200000b4
        0x00002430:    6840        @h      LDR      r0,[r0,#4]
        0x00002432:    2800        .(      CMP      r0,#0
        0x00002434:    d002        ..      BEQ      0x243c ; uart_rx_isr + 16
        0x00002436:    4902        .I      LDR      r1,[pc,#8] ; [0x2440] = 0x200000b4
        0x00002438:    6848        Hh      LDR      r0,[r1,#4]
        0x0000243a:    4780        .G      BLX      r0
        0x0000243c:    2000        .       MOVS     r0,#0
        0x0000243e:    bd10        ..      POP      {r4,pc}
    $d
        0x00002440:    200000b4    ...     DCD    536871092
    $d.realdata
    .constdata
    rreg_uriquery
        0x00002444:    63753d68    h=uc    DCD    1668627816
        0x00002448:    0062        b.      DCW    98
    infoBoardname
        0x0000244a:    4353        SC      DCW    17235
        0x0000244c:    43334d75    uM3C    DCD    1127435637
        0x00002450:    00          .       DCB    0
    infouCName
        0x00002451:    436f72      Cor     DCB    67,111,114
        0x00002454:    4d786574    texM    DCD    1299735924
        0x00002458:    0030        0.      DCW    48
    infoRadioName
        0x0000245a:    4353        SC      DCW    17235
        0x0000245c:    4d75        uM      DCW    19829
        0x0000245e:    00          .       DCB    0
    eui64
        0x0000245f:    00          .       DCB    0
        0x00002460:    44332211    ."3D    DCD    1144201745
        0x00002464:    00776655    Ufw.    DCD    7824981
    .constdata
    rreg_uriquery
        0x00002468:    63753d68    h=uc    DCD    1668627816
        0x0000246c:    0062        b.      DCW    98
    infoBoardname
        0x0000246e:    4353        SC      DCW    17235
        0x00002470:    43334d75    uM3C    DCD    1127435637
        0x00002474:    00          .       DCB    0
    infouCName
        0x00002475:    436f72      Cor     DCB    67,111,114
        0x00002478:    4d786574    texM    DCD    1299735924
        0x0000247c:    0030        0.      DCW    48
    infoRadioName
        0x0000247e:    4353        SC      DCW    17235
        0x00002480:    00004d75    uM..    DCD    19829
    default_dac_2m_setting
        0x00002484:    0000001f    ....    DCD    31
        0x00002488:    0000001f    ....    DCD    31
        0x0000248c:    0000001d    ....    DCD    29
        0x00002490:    00000002    ....    DCD    2
        0x00002494:    00000002    ....    DCD    2
        0x00002498:    046d046b    k.m.    DCD    74253419
        0x0000249c:    0471046f    o.q.    DCD    74515567
        0x000024a0:    04760474    t.v.    DCD    74843252
        0x000024a4:    047a0478    x.z.    DCD    75105400
        0x000024a8:    045d045b    [.].    DCD    73204827
        0x000024ac:    0461045f    _.a.    DCD    73466975
        0x000024b0:    04660464    d.f.    DCD    73794660
        0x000024b4:    046a0468    h.j.    DCD    74056808
        0x000024b8:    046e046c    l.n.    DCD    74318956
        0x000024bc:    04720470    p.r.    DCD    74581104
        0x000024c0:    04750473    s.u.    DCD    74777715
        0x000024c4:    04790477    w.y.    DCD    75039863
        0x000024c8:    045e045c    \.^.    DCD    73270364
        0x000024cc:    04620460    `.b.    DCD    73532512
        0x000024d0:    04650463    c.e.    DCD    73729123
        0x000024d4:    04690467    g.i.    DCD    73991271
    .constdata
    uc_hextab
        0x000024d8:    33323130    0123    DCD    858927408
        0x000024dc:    37363534    4567    DCD    926299444
        0x000024e0:    42413938    89AB    DCD    1111570744
        0x000024e4:    46454443    CDEF    DCD    1178944579
        0x000024e8:    00583040    @0X.    DCD    5779520
    lc_hextab
        0x000024ec:    33323130    0123    DCD    858927408
        0x000024f0:    37363534    4567    DCD    926299444
        0x000024f4:    62613938    89ab    DCD    1650538808
        0x000024f8:    66656463    cdef    DCD    1717920867
        0x000024fc:    00783040    @0x.    DCD    7876672
    Region$$Table$$Base
        0x00002500:    00002520     %..    DCD    9504
        0x00002504:    20000000    ...     DCD    536870912
        0x00002508:    00000094    ....    DCD    148
        0x0000250c:    000000c4    ....    DCD    196
        0x00002510:    000025b4    .%..    DCD    9652
        0x00002514:    20000094    ...     DCD    536871060
        0x00002518:    000010cc    ....    DCD    4300
        0x0000251c:    000000e0    ....    DCD    224
    Region$$Table$$Limit

====================================

** Section #2

    Name        : RW_IRAM1
    Type        : SHT_PROGBITS (0x00000001)
    Flags       : SHF_ALLOC + SHF_WRITE (0x00000003)
    Addr        : 0x20000000
    File Offset : 9556 (0x2554)
    Size        : 148 bytes (0x94)
    Link        : SHN_UNDEF
    Info        : 0
    Alignment   : 4
    Entry Size  : 0


====================================

** Section #3

    Name        : RW_IRAM1
    Type        : SHT_NOBITS (0x00000008)
    Flags       : SHF_ALLOC + SHF_WRITE (0x00000003)
    Addr        : 0x20000094
    File Offset : 9704 (0x25e8)
    Size        : 4300 bytes (0x10cc)
    Link        : SHN_UNDEF
    Info        : 0
    Alignment   : 16
    Entry Size  : 0


====================================

** Section #4

    Name        : .debug_abbrev
    Type        : SHT_PROGBITS (0x00000001)
    Flags       : None (0x00000000)
    Addr        : 0x00000000
    File Offset : 9704 (0x25e8)
    Size        : 1476 bytes (0x5c4)
    Link        : SHN_UNDEF
    Info        : 0
    Alignment   : 1
    Entry Size  : 0


====================================

** Section #5

    Name        : .debug_frame
    Type        : SHT_PROGBITS (0x00000001)
    Flags       : None (0x00000000)
    Addr        : 0x00000000
    File Offset : 11180 (0x2bac)
    Size        : 3548 bytes (0xddc)
    Link        : SHN_UNDEF
    Info        : 0
    Alignment   : 1
    Entry Size  : 0


====================================

** Section #6

    Name        : .debug_info
    Type        : SHT_PROGBITS (0x00000001)
    Flags       : None (0x00000000)
    Addr        : 0x00000000
    File Offset : 14728 (0x3988)
    Size        : 40328 bytes (0x9d88)
    Link        : SHN_UNDEF
    Info        : 0
    Alignment   : 1
    Entry Size  : 0


====================================

** Section #7

    Name        : .debug_line
    Type        : SHT_PROGBITS (0x00000001)
    Flags       : None (0x00000000)
    Addr        : 0x00000000
    File Offset : 55056 (0xd710)
    Size        : 16600 bytes (0x40d8)
    Link        : SHN_UNDEF
    Info        : 0
    Alignment   : 1
    Entry Size  : 0


====================================

** Section #8

    Name        : .debug_loc
    Type        : SHT_PROGBITS (0x00000001)
    Flags       : None (0x00000000)
    Addr        : 0x00000000
    File Offset : 71656 (0x117e8)
    Size        : 5596 bytes (0x15dc)
    Link        : SHN_UNDEF
    Info        : 0
    Alignment   : 1
    Entry Size  : 0


====================================

** Section #9

    Name        : .debug_macinfo
    Type        : SHT_PROGBITS (0x00000001)
    Flags       : None (0x00000000)
    Addr        : 0x00000000
    File Offset : 77252 (0x12dc4)
    Size        : 5568 bytes (0x15c0)
    Link        : SHN_UNDEF
    Info        : 0
    Alignment   : 1
    Entry Size  : 0


====================================

** Section #10

    Name        : .debug_pubnames
    Type        : SHT_PROGBITS (0x00000001)
    Flags       : None (0x00000000)
    Addr        : 0x00000000
    File Offset : 82820 (0x14384)
    Size        : 4649 bytes (0x1229)
    Link        : SHN_UNDEF
    Info        : 0
    Alignment   : 1
    Entry Size  : 0


====================================

** Section #11

    Name        : .symtab
    Type        : SHT_SYMTAB (0x00000002)
    Flags       : None (0x00000000)
    Addr        : 0x00000000
    File Offset : 87472 (0x155b0)
    Size        : 11472 bytes (0x2cd0)
    Link        : Section 12 (.strtab)
    Info        : Last local symbol no = 485
    Alignment   : 4
    Entry Size  : 16


====================================

** Section #12

    Name        : .strtab
    Type        : SHT_STRTAB (0x00000003)
    Flags       : None (0x00000000)
    Addr        : 0x00000000
    File Offset : 98944 (0x18280)
    Size        : 9068 bytes (0x236c)
    Link        : SHN_UNDEF
    Info        : 0
    Alignment   : 1
    Entry Size  : 0


====================================

** Section #13

    Name        : .note
    Type        : SHT_NOTE (0x00000007)
    Flags       : None (0x00000000)
    Addr        : 0x00000000
    File Offset : 108012 (0x1a5ec)
    Size        : 28 bytes (0x1c)
    Link        : SHN_UNDEF
    Info        : 0
    Alignment   : 4
    Entry Size  : 0

        Section     Segment
    ====================================

              1           0
              2           0
              3           0

====================================

** Section #14

    Name        : .comment
    Type        : SHT_PROGBITS (0x00000001)
    Flags       : None (0x00000000)
    Addr        : 0x00000000
    File Offset : 108040 (0x1a608)
    Size        : 6844 bytes (0x1abc)
    Link        : SHN_UNDEF
    Info        : 0
    Alignment   : 1
    Entry Size  : 0

    Component: ARM Compiler 5.06 update 7 (build 960) Tool: armlink [4d3601]
    ArmLink --strict --callgraph --load_addr_map_info --map --symbols --xref --diag_suppress=9931 --cpu=Cortex-M0 --list=.\Listings\01bsp_radio.map --output=.\Objects\01bsp_radio.axf --scatter=.\Objects\01bsp_radio.sct --info=summarysizes,sizes,totals,unused,veneers

    C:\Keil_v5\ARM\ARMCC\Bin\..\lib\armlib\c_p.l
    C:\Keil_v5\ARM\ARMCC\Bin\..\lib\armlib\fz_ps.l
    C:\Keil_v5\ARM\ARMCC\Bin\..\lib\armlib\h_p.l
    C:\Keil_v5\ARM\ARMCC\Bin\..\lib\armlib\m_ps.l
    C:\Keil_v5\ARM\ARMCC\Bin\..\lib\armlib\vfpsupport.l
    Input Comments:
    
    01bsp_radio.o
    
    Component: ARM Compiler 5.06 update 7 (build 960) Tool: ArmCC [4d365d]
    ArmCC --split_sections --debug -c -o.\objects\01bsp_radio.o --depend=.\objects\01bsp_radio.d --cpu=Cortex-M0 --apcs=interwork -O0 --diag_suppress=9931 -I..\..\..\bsp\boards\scum -I..\..\..\bsp\boards -IC:\Users\fmaksimo\AppData\Local\Arm\Packs\ARM\CMSIS\5.7.0\Device\ARM\ARMCM0\Include -IC:\Keil_v5\ARM\CMSIS\Include -D__UVISION_VERSION=533 -DARMCM0 --omf_browse=.\objects\01bsp_radio.crf 01bsp_radio.c
    
    cm0dsasm.o
    
    Component: ARM Compiler 5.06 update 7 (build 960) Tool: armasm [4d35fa]
    ArmAsm --16 --debug --xref --diag_suppress=9931 --cpu=Cortex-M0 --apcs=interwork --depend=.\objects\cm0dsasm.d  -IC:\Users\fmaksimo\AppData\Local\Arm\Packs\ARM\CMSIS\5.7.0\Device\ARM\ARMCM0\Include -IC:\Keil_v5\ARM\CMSIS\Include --predefine
    
    
    leds.o
    
    Component: ARM Compiler 5.06 update 7 (build 960) Tool: ArmCC [4d365d]
    ArmCC --split_sections --debug -c -o.\objects\leds.o --depend=.\objects\leds.d --cpu=Cortex-M0 --apcs=interwork -O0 --diag_suppress=9931 -I..\..\..\bsp\boards\scum -I..\..\..\bsp\boards -IC:\Users\fmaksimo\AppData\Local\Arm\Packs\ARM\CMSIS\5.7.0\Device\ARM\ARMCM0\Include -IC:\Keil_v5\ARM\CMSIS\Include -D__UVISION_VERSION=533 -DARMCM0 --omf_browse=.\objects\leds.crf ..\..\..\bsp\boards\scum\leds.c
    
    board.o
    
    Component: ARM Compiler 5.06 update 7 (build 960) Tool: ArmCC [4d365d]
    ArmCC --split_sections --debug -c -o.\objects\board.o --depend=.\objects\board.d --cpu=Cortex-M0 --apcs=interwork -O0 --diag_suppress=9931 -I..\..\..\bsp\boards\scum -I..\..\..\bsp\boards -IC:\Users\fmaksimo\AppData\Local\Arm\Packs\ARM\CMSIS\5.7.0\Device\ARM\ARMCM0\Include -IC:\Keil_v5\ARM\CMSIS\Include -D__UVISION_VERSION=533 -DARMCM0 --omf_browse=.\objects\board.crf ..\..\..\bsp\boards\scum\board.c
    
    uart.o
    
    Component: ARM Compiler 5.06 update 7 (build 960) Tool: ArmCC [4d365d]
    ArmCC --split_sections --debug -c -o.\objects\uart.o --depend=.\objects\uart.d --cpu=Cortex-M0 --apcs=interwork -O0 --diag_suppress=9931 -I..\..\..\bsp\boards\scum -I..\..\..\bsp\boards -IC:\Users\fmaksimo\AppData\Local\Arm\Packs\ARM\CMSIS\5.7.0\Device\ARM\ARMCM0\Include -IC:\Keil_v5\ARM\CMSIS\Include -D__UVISION_VERSION=533 -DARMCM0 --omf_browse=.\objects\uart.crf ..\..\..\bsp\boards\scum\uart.c
    
    debugpins.o
    
    Component: ARM Compiler 5.06 update 7 (build 960) Tool: ArmCC [4d365d]
    ArmCC --split_sections --debug -c -o.\objects\debugpins.o --depend=.\objects\debugpins.d --cpu=Cortex-M0 --apcs=interwork -O0 --diag_suppress=9931 -I..\..\..\bsp\boards\scum -I..\..\..\bsp\boards -IC:\Users\fmaksimo\AppData\Local\Arm\Packs\ARM\CMSIS\5.7.0\Device\ARM\ARMCM0\Include -IC:\Keil_v5\ARM\CMSIS\Include -D__UVISION_VERSION=533 -DARMCM0 --omf_browse=.\objects\debugpins.crf ..\..\..\bsp\boards\scum\debugpins.c
    
    radio.o
    
    Component: ARM Compiler 5.06 update 7 (build 960) Tool: ArmCC [4d365d]
    ArmCC --split_sections --debug -c -o.\objects\radio.o --depend=.\objects\radio.d --cpu=Cortex-M0 --apcs=interwork -O0 --diag_suppress=9931 -I..\..\..\bsp\boards\scum -I..\..\..\bsp\boards -IC:\Users\fmaksimo\AppData\Local\Arm\Packs\ARM\CMSIS\5.7.0\Device\ARM\ARMCM0\Include -IC:\Keil_v5\ARM\CMSIS\Include -D__UVISION_VERSION=533 -DARMCM0 --omf_browse=.\objects\radio.crf ..\..\..\bsp\boards\scum\radio.c
    
    eui64.o
    
    Component: ARM Compiler 5.06 update 7 (build 960) Tool: ArmCC [4d365d]
    ArmCC --split_sections --debug -c -o.\objects\eui64.o --depend=.\objects\eui64.d --cpu=Cortex-M0 --apcs=interwork -O0 --diag_suppress=9931 -I..\..\..\bsp\boards\scum -I..\..\..\bsp\boards -IC:\Users\fmaksimo\AppData\Local\Arm\Packs\ARM\CMSIS\5.7.0\Device\ARM\ARMCM0\Include -IC:\Keil_v5\ARM\CMSIS\Include -D__UVISION_VERSION=533 -DARMCM0 --omf_browse=.\objects\eui64.crf ..\..\..\bsp\boards\scum\eui64.c
    
    sctimer.o
    
    Component: ARM Compiler 5.06 update 7 (build 960) Tool: ArmCC [4d365d]
    ArmCC --split_sections --debug -c -o.\objects\sctimer.o --depend=.\objects\sctimer.d --cpu=Cortex-M0 --apcs=interwork -O0 --diag_suppress=9931 -I..\..\..\bsp\boards\scum -I..\..\..\bsp\boards -IC:\Users\fmaksimo\AppData\Local\Arm\Packs\ARM\CMSIS\5.7.0\Device\ARM\ARMCM0\Include -IC:\Keil_v5\ARM\CMSIS\Include -D__UVISION_VERSION=533 -DARMCM0 --omf_browse=.\objects\sctimer.crf ..\..\..\bsp\boards\scum\sctimer.c
    
    retarget.o
    
    Component: ARM Compiler 5.06 update 7 (build 960) Tool: ArmCC [4d365d]
    ArmCC --split_sections --debug -c -o.\objects\retarget.o --depend=.\objects\retarget.d --cpu=Cortex-M0 --apcs=interwork -O0 --diag_suppress=9931 -I..\..\..\bsp\boards\scum -I..\..\..\bsp\boards -IC:\Users\fmaksimo\AppData\Local\Arm\Packs\ARM\CMSIS\5.7.0\Device\ARM\ARMCM0\Include -IC:\Keil_v5\ARM\CMSIS\Include -D__UVISION_VERSION=533 -DARMCM0 --omf_browse=.\objects\retarget.crf ..\..\..\bsp\boards\scum\retarget.c
    
    adc.o
    
    Component: ARM Compiler 5.06 update 7 (build 960) Tool: ArmCC [4d365d]
    ArmCC --split_sections --debug -c -o.\objects\adc.o --depend=.\objects\adc.d --cpu=Cortex-M0 --apcs=interwork -O0 --diag_suppress=9931 -I..\..\..\bsp\boards\scum -I..\..\..\bsp\boards -IC:\Users\fmaksimo\AppData\Local\Arm\Packs\ARM\CMSIS\5.7.0\Device\ARM\ARMCM0\Include -IC:\Keil_v5\ARM\CMSIS\Include -D__UVISION_VERSION=533 -DARMCM0 --omf_browse=.\objects\adc.crf ..\..\..\bsp\boards\scum\adc.c
    
    optical.o
    
    Component: ARM Compiler 5.06 update 7 (build 960) Tool: ArmCC [4d365d]
    ArmCC --split_sections --debug -c -o.\objects\optical.o --depend=.\objects\optical.d --cpu=Cortex-M0 --apcs=interwork -O0 --diag_suppress=9931 -I..\..\..\bsp\boards\scum -I..\..\..\bsp\boards -IC:\Users\fmaksimo\AppData\Local\Arm\Packs\ARM\CMSIS\5.7.0\Device\ARM\ARMCM0\Include -IC:\Keil_v5\ARM\CMSIS\Include -D__UVISION_VERSION=533 -DARMCM0 --omf_browse=.\objects\optical.crf ..\..\..\bsp\boards\scum\optical.c
    
    scm3c_hw_interface.o
    
    Component: ARM Compiler 5.06 update 7 (build 960) Tool: ArmCC [4d365d]
    ArmCC --split_sections --debug -c -o.\objects\scm3c_hw_interface.o --depend=.\objects\scm3c_hw_interface.d --cpu=Cortex-M0 --apcs=interwork -O0 --diag_suppress=9931 -I..\..\..\bsp\boards\scum -I..\..\..\bsp\boards -IC:\Users\fmaksimo\AppData\Local\Arm\Packs\ARM\CMSIS\5.7.0\Device\ARM\ARMCM0\Include -IC:\Keil_v5\ARM\CMSIS\Include -D__UVISION_VERSION=533 -DARMCM0 --omf_browse=.\objects\scm3c_hw_interface.crf ..\..\..\bsp\boards\scum\scm3c_hw_interface.c
    
    
    
    

====================================

** Section #15

    Name        : .shstrtab
    Type        : SHT_STRTAB (0x00000003)
    Flags       : None (0x00000000)
    Addr        : 0x00000000
    File Offset : 114884 (0x1c0c4)
    Size        : 156 bytes (0x9c)
    Link        : SHN_UNDEF
    Info        : 0
    Alignment   : 1
    Entry Size  : 0


====================================

